(dp0
S'woods'
p1
I81
sS'spiders'
p2
I40
sS'screaming'
p3
I118
sS'receiving'
p4
I39
sS'wednesday'
p5
I456
sS'kids'
p6
I1372
sS'dnt'
p7
I210
sS'yahoo'
p8
I107
sS'listenin'
p9
I72
sS'wrong'
p10
I1349
sS'welcomed'
p11
I26
sS'fit'
p12
I372
sS'bringing'
p13
I155
sS'fic'
p14
I37
sS'2day'
p15
I542
sS'olds'
p16
I43
sS'needed'
p17
I564
sS'master'
p18
I82
sS'tech'
p19
I175
sS'tempted'
p20
I80
sS'patch'
p21
I65
sS'irl'
p22
I32
sS'nature'
p23
I111
sS'memorial'
p24
I172
sS'corporate'
p25
I38
sS"they'd"
p26
I66
sS'crowd'
p27
I129
sS'crown'
p28
I27
sS'honeymoon'
p29
I25
sS'fabric'
p30
I31
sS'congratulations'
p31
I404
sS'layin'
p32
I42
sS'nicest'
p33
I30
sS'chain'
p34
I52
sS'whoever'
p35
I88
sS'chair'
p36
I130
sS'ballet'
p37
I32
sS'jerk'
p38
I60
sS'gloomy'
p39
I94
sS'exact'
p40
I97
sS'minute'
p41
I476
sS'geography'
p42
I75
sS'following'
p43
I1771
sS'thanking'
p44
I50
sS'surfing'
p45
I81
sS'jim'
p46
I84
sS'sorted'
p47
I135
sS'quarter'
p48
I42
sS'spoken'
p49
I47
sS'turned'
p50
I429
sS'mayer'
p51
I42
sS'opposite'
p52
I72
sS'dexter'
p53
I32
sS'millionaire'
p54
I52
sS'fix'
p55
I501
sS'hashtag'
p56
I49
sS'being'
p57
I3635
sS'traffic'
p58
I336
sS'brazilian'
p59
I51
sS'with'
p60
I26818
sS'monopoly'
p61
I27
sS'trips'
p62
I58
sS'cream'
p63
I617
sS'yoga'
p64
I141
sS'waving'
p65
I33
sS'tricky'
p66
I34
sS'natalie'
p67
I50
sS'tricks'
p68
I43
sS'ppls'
p69
I25
sS'sans'
p70
I39
sS'sang'
p71
I99
sS'sand'
p72
I62
sS'sane'
p73
I35
sS'hasn'
p74
I30
sS'hash'
p75
I35
sS"friday's"
p76
I35
sS'morn'
p77
I133
sS'more'
p78
I8904
sS'company'
p79
I525
sS'installing'
p80
I87
sS'learn'
p81
I638
sS'huge'
p82
I627
sS'hugh'
p83
I103
sS'hugs'
p84
I621
sS'bummed'
p85
I351
sS'bummer'
p86
I279
sS'sauce'
p87
I118
sS'colleague'
p88
I26
sS'gadget'
p89
I42
sS'idols'
p90
I27
sS'everytime'
p91
I167
sS'shocking'
p92
I30
sS'research'
p93
I208
sS'offline'
p94
I104
sS'understands'
p95
I28
sS'incase'
p96
I25
sS'i`m'
p97
I107
sS'damnit'
p98
I103
sS'distraction'
p99
I34
sS'bell'
p100
I123
sS'belt'
p101
I43
sS'\xc2\xa325'
p102
I37
sS'kno'
p103
I222
sS'knw'
p104
I54
sS'couple'
p105
I843
sS'behave'
p106
I28
sS'tasting'
p107
I51
sS'influence'
p108
I43
sS'revision'
p109
I598
sS'video'
p110
I1665
sS'derby'
p111
I153
sS'makes'
p112
I2125
sS'maker'
p113
I48
sS'rode'
p114
I52
sS'comedy'
p115
I127
sS'houston'
p116
I141
sS'total'
p117
I230
sS'90210'
p118
I56
sS'books'
p119
I522
sS'could'
p120
I4818
sS'3turnoffwords'
p121
I39
sS'false'
p122
I57
sS'placement'
p123
I26
sS'brew'
p124
I29
sS'abby'
p125
I27
sS'guessing'
p126
I104
sS'destiny'
p127
I26
sS'staring'
p128
I78
sS'moves'
p129
I63
sS'off'
p130
I9144
sS'newest'
p131
I81
sS'practise'
p132
I25
sS'become'
p133
I312
sS'passion'
p134
I70
sS'biology'
p135
I99
sS'brownies'
p136
I91
sS'excitement'
p137
I81
sS'problem'
p138
I919
sS'details'
p139
I204
sS'yikes'
p140
I89
sS'panda'
p141
I80
sS'referring'
p142
I55
sS'stressed'
p143
I172
sS'bro'
p144
I444
sS'brb'
p145
I78
sS'bra'
p146
I35
sS'tnx'
p147
I56
sS'cuddle'
p148
I151
sS'nuts'
p149
I148
sS'tegan'
p150
I26
sS'production'
p151
I62
sS'another'
p152
I3503
sS'cereal'
p153
I148
sS'dreary'
p154
I31
sS'runs'
p155
I138
sS'emo'
p156
I85
sS'visited'
p157
I66
sS'kitchen'
p158
I271
sS'gratitude'
p159
I26
sS'strong'
p160
I281
sS'sleepover'
p161
I81
sS'gna'
p162
I46
sS'followfriday'
p163
I997
sS'fuss'
p164
I31
sS'niiice'
p165
I35
sS'everton'
p166
I29
sS'night'
p167
I10372
sS'teehee'
p168
I56
sS'hiii'
p169
I86
sS'normally'
p170
I124
sS'paige'
p171
I32
sS'concept'
p172
I70
sS'gigs'
p173
I68
sS'turns'
p174
I242
sS'<LULZ>'
p175
I26038
sS'2:30'
p176
I31
sS"hadn't"
p177
I130
sS'teacher'
p178
I235
sS'regardless'
p179
I47
sS'extra'
p180
I409
sS'xdd'
p181
I38
sS'ended'
p182
I356
sS'still'
p183
I9660
sS'fb'
p184
I682
sS'tomorrow'
p185
I7412
sS'caught'
p186
I391
sS'hookah'
p187
I32
sS'importantly'
p188
I29
sS'stroll'
p189
I28
sS'colours'
p190
I53
sS'elvis'
p191
I35
sS'develop'
p192
I43
sS'va'
p193
I94
sS'greetings'
p194
I93
sS'death'
p195
I416
sS'nuggets'
p196
I53
sS'600'
p197
I33
sS'fools'
p198
I35
sS'danielle'
p199
I38
sS'<LINK>'
p200
I20452
sS'timeline'
p201
I49
sS'advertising'
p202
I57
sS"haven't"
p203
I1534
sS'evening'
p204
I818
sS'ninja'
p205
I39
sS'bless'
p206
I420
sS'ooops'
p207
I55
sS'fairy'
p208
I55
sS'heavy'
p209
I203
sS'american'
p210
I412
sS'rawr'
p211
I44
sS'charlotte'
p212
I59
sS'randomly'
p213
I78
sS'physics'
p214
I108
sS'kindly'
p215
I40
sS'hype'
p216
I46
sS'league'
p217
I118
sS"wouldn't"
p218
I578
sS'empty'
p219
I260
sS'obviously'
p220
I225
sS'procrastinating'
p221
I76
sS'lips'
p222
I63
sS'silence'
p223
I80
sS'similar'
p224
I136
sS'smiles'
p225
I113
sS'smiley'
p226
I55
sS'pancake'
p227
I39
sS'camera'
p228
I497
sS'links'
p229
I238
sS'including'
p230
I155
sS'special'
p231
I686
sS'jill'
p232
I29
sS'margaritas'
p233
I30
sS'checking'
p234
I398
sS'bastard'
p235
I53
sS'indy'
p236
I44
sS'won'
p237
I1016
sS'ken'
p238
I33
sS'kicking'
p239
I151
sS'key'
p240
I194
sS'limits'
p241
I36
sS'tuesday'
p242
I712
sS'speaker'
p243
I36
sS'http'
p244
I28
sS'distant'
p245
I32
sS'4.'
p246
I79
sS'grinding'
p247
I27
sS'gain'
p248
I69
sS'highest'
p249
I29
sS'beats'
p250
I119
sS'swag'
p251
I30
sS'swap'
p252
I46
sS'sorry'
p253
I5167
sS'sway'
p254
I78
sS'berlin'
p255
I91
sS'room'
p256
I1423
sS'roof'
p257
I108
sS'root'
p258
I68
sS'anymore'
p259
I1241
sS'personal'
p260
I272
sS'crew'
p261
I149
sS'forgot'
p262
I1246
sS'aids'
p263
I36
sS'mandy'
p264
I60
sS'hoodie'
p265
I39
sS'brrr'
p266
I39
sS'downside'
p267
I40
sS'2am'
p268
I116
sS'kristen'
p269
I41
sS'probs'
p270
I156
sS'effing'
p271
I104
sS'omg'
p272
I2406
sS'omj'
p273
I30
sS'asks'
p274
I60
sS'cyrus'
p275
I124
sS'lovely'
p276
I1821
sS'cant'
p277
I3670
sS'realizing'
p278
I51
sS'meets'
p279
I27
sS'failing'
p280
I106
sS'yours'
p281
I544
sS'afternoon'
p282
I1069
sS'automatically'
p283
I40
sS'down'
p284
I4057
sS'cardiff'
p285
I47
sS'whiskey'
p286
I39
sS'happening'
p287
I268
sS'suspect'
p288
I40
sS'box'
p289
I407
sS'boy'
p290
I1062
sS'bot'
p291
I42
sS'bow'
p292
I35
sS'boi'
p293
I28
sS'bom'
p294
I69
sS'bon'
p295
I73
sS'boo'
p296
I976
sS'boa'
p297
I30
sS'bob'
p298
I124
sS'kiddos'
p299
I32
sS'waited'
p300
I82
sS'kevin'
p301
I140
sS'enthusiasm'
p302
I27
sS'get'
p303
I17962
sS'gee'
p304
I78
sS'geo'
p305
I35
sS'gen'
p306
I25
sS'gem'
p307
I29
sS'seat'
p308
I124
sS'seal'
p309
I25
sS'wonder'
p310
I725
sS'satisfying'
p311
I30
sS'across'
p312
I225
sS'august'
p313
I153
sS'considering'
p314
I169
sS'wake'
p315
I1060
sS'loosing'
p316
I39
sS'protein'
p317
I29
sS'extended'
p318
I39
sS'clueless'
p319
I34
sS'adams'
p320
I32
sS'fitness'
p321
I59
sS'distracted'
p322
I88
sS'vh1'
p323
I25
sS'spicy'
p324
I52
sS'spice'
p325
I40
sS'puffy'
p326
I30
sS'fwd'
p327
I36
sS'andyclemmensen'
p328
I41
sS'africa'
p329
I74
sS'twiggas'
p330
I25
sS'bruins'
p331
I41
sS'karaoke'
p332
I62
sS'hour'
p333
I1714
sS'sucks'
p334
I1972
sS'minimum'
p335
I27
sS'acts'
p336
I39
sS'maps'
p337
I38
sS'kitty'
p338
I239
sS'dragon'
p339
I39
sS'mystery'
p340
I65
sS'perry'
p341
I78
sS'backed'
p342
I29
sS'etsy'
p343
I61
sS'urban'
p344
I58
sS'services'
p345
I119
sS'tuesdays'
p346
I28
sS'grounded'
p347
I56
sS'point'
p348
I665
sS'tennessee'
p349
I25
sS'expensive'
p350
I244
sS'portugal'
p351
I40
sS'century'
p352
I68
sS"monday's"
p353
I39
sS'easter'
p354
I336
sS'knock'
p355
I103
sS'tiff'
p356
I30
sS'1/2'
p357
I183
sS'yang'
p358
I28
sS'cooked'
p359
I106
sS'maddie'
p360
I25
sS'entire'
p361
I257
sS'packing'
p362
I422
sS'healing'
p363
I56
sS'prizes'
p364
I27
sS'didnt'
p365
I1421
sS'chasing'
p366
I51
sS'yard'
p367
I189
sS'yarn'
p368
I28
sS'spelling'
p369
I93
sS'sweden'
p370
I80
sS'occasion'
p371
I27
sS'teams'
p372
I66
sS'tscc'
p373
I31
sS'tweetup'
p374
I65
sS'welcoming'
p375
I33
sS'frustrating'
p376
I94
sS'profile'
p377
I418
sS'like'
p378
I17793
sS'hail'
p379
I36
sS'hair'
p380
I1571
sS'hurricane'
p381
I26
sS':-d'
p382
I107
sS':-p'
p383
I87
sS':-('
p384
I18067
sS':-)'
p385
I25628
sS':-/'
p386
I85
sS'introduced'
p387
I29
sS'socks'
p388
I111
sS'rushed'
p389
I29
sS'coke'
p390
I167
sS'flip'
p391
I92
sS'circus'
p392
I44
sS"daughter's"
p393
I32
sS'@'
p394
I2576
sS'trailer'
p395
I99
sS'direct'
p396
I245
sS'nail'
p397
I116
sS'causes'
p398
I42
sS'luggage'
p399
I50
sS'stevie'
p400
I32
sS'prints'
p401
I28
sS'estate'
p402
I32
sS'drummer'
p403
I26
sS'funniest'
p404
I70
sS'howdy'
p405
I32
sS'detroit'
p406
I54
sS'encouraging'
p407
I33
sS'mud'
p408
I46
sS'mug'
p409
I56
sS'hopefully'
p410
I1374
sS'mum'
p411
I756
sS'muh'
p412
I29
sS'fault'
p413
I210
sS'spurs'
p414
I40
sS'beside'
p415
I58
sS'ocean'
p416
I110
sS'gave'
p417
I703
sS'election'
p418
I39
sS'offices'
p419
I29
sS'stuck'
p420
I1063
sS'nerds'
p421
I27
sS'football'
p422
I269
sS'faster'
p423
I166
sS'ron'
p424
I42
sS'rob'
p425
I191
sS'row'
p426
I265
sS'goes'
p427
I1071
sS'crisis'
p428
I62
sS'andy'
p429
I201
sS'figure'
p430
I591
sS'dreading'
p431
I154
sS'farewell'
p432
I46
sS'cards'
p433
I211
sS'havnt'
p434
I71
sS'tylenol'
p435
I30
sS'superman'
p436
I29
sS'icon'
p437
I97
sS'proud'
p438
I564
sS'cheat'
p439
I31
sS'cheap'
p440
I217
sS'jazz'
p441
I95
sS'direction'
p442
I42
sS'case'
p443
I560
sS'casa'
p444
I47
sS'cash'
p445
I176
sS'cast'
p446
I129
sS'ironic'
p447
I36
sS'manila'
p448
I93
sS'status'
p449
I213
sS'polish'
p450
I54
sS'nowww'
p451
I47
sS'patrick'
p452
I56
sS'deserve'
p453
I260
sS'finale'
p454
I402
sS'finaly'
p455
I26
sS'finals'
p456
I491
sS'twitterers'
p457
I95
sS'toes'
p458
I72
sS'exited'
p459
I41
sS'israel'
p460
I32
sS'niceee'
p461
I28
sS'susan'
p462
I118
sS'isnt'
p463
I420
sS'gps'
p464
I34
sS'motivation'
p465
I120
sS'lying'
p466
I159
sS'grandmas'
p467
I37
sS'emails'
p468
I203
sS'attention'
p469
I224
sS'flight'
p470
I582
sS'shirt'
p471
I452
sS'9'
p472
I441
sS'daughters'
p473
I59
sS'higher'
p474
I86
sS'try'
p475
I2616
sS'questions'
p476
I215
sS'humour'
p477
I47
sS"hasn't"
p478
I277
sS'rally'
p479
I32
sS'backs'
p480
I33
sS'nick'
p481
I331
sS'nice'
p482
I6566
sS'meaning'
p483
I106
sS'ashton'
p484
I70
sS'buffalo'
p485
I40
sS'chose'
p486
I62
sS'settling'
p487
I45
sS'thirsty'
p488
I47
sS'hilton'
p489
I41
sS'somethin'
p490
I86
sS'h8'
p491
I30
sS'crashes'
p492
I49
sS'hence'
p493
I82
sS'noticed'
p494
I259
sS'unknown'
p495
I34
sS'hr'
p496
I111
sS'hs'
p497
I51
sS'who'
p498
I4117
sS'wht'
p499
I52
sS'why'
p500
I5774
sS'pleasee'
p501
I35
sS'pleased'
p502
I178
sS'he'
p503
I1427
sS'cube'
p504
I30
sS'cubs'
p505
I47
sS'married'
p506
I225
sS'tweetdeck'
p507
I378
sS'warming'
p508
I63
sS'nadal'
p509
I29
sS"should've"
p510
I105
sS'guts'
p511
I39
sS'ripped'
p512
I62
sS'carried'
p513
I25
sS'hiccups'
p514
I47
sS'arnt'
p515
I26
sS'conclusion'
p516
I38
sS'hurt'
p517
I970
sS'damage'
p518
I63
sS'machine'
p519
I303
sS'wolfram'
p520
I53
sS'gaming'
p521
I67
sS'efron'
p522
I52
sS'engagement'
p523
I42
sS'wisdom'
p524
I130
sS'pattinson'
p525
I43
sS'okie'
p526
I30
sS'causing'
p527
I46
sS'slumdog'
p528
I57
sS'ment'
p529
I37
sS'menu'
p530
I64
sS'mamas'
p531
I41
sS'imho'
p532
I30
sS'best'
p533
I4095
sS'score'
p534
I175
sS'adventures'
p535
I56
sS'chrome'
p536
I67
sS'life'
p537
I3632
sS'lift'
p538
I72
sS'babies'
p539
I233
sS'nachos'
p540
I31
sS'counts'
p541
I64
sS'typo'
p542
I41
sS'exist'
p543
I94
sS'nxt'
p544
I77
sS'solved'
p545
I42
sS'current'
p546
I167
sS'studied'
p547
I53
sS'wherever'
p548
I61
sS'studies'
p549
I79
sS'upsetting'
p550
I39
sS'afford'
p551
I324
sS'winter'
p552
I238
sS'elephant'
p553
I42
sS'blasting'
p554
I43
sS'bagels'
p555
I36
sS'matches'
p556
I45
sS'records'
p557
I66
sS'arriving'
p558
I46
sS'2'
p559
I7156
sS'tasted'
p560
I55
sS'tastes'
p561
I122
sS'madison'
p562
I36
sS'#followfriday'
p563
I48
sS'surgery'
p564
I158
sS'supermarket'
p565
I27
sS'loudly'
p566
I27
sS'twit'
p567
I238
sS'twin'
p568
I103
sS'cramming'
p569
I31
sS'cheers'
p570
I471
sS'costa'
p571
I29
sS'costs'
p572
I61
sS'trains'
p573
I66
sS'pop'
p574
I272
sS"how's"
p575
I260
sS"how'd"
p576
I44
sS'aa'
p577
I32
sS'ac'
p578
I97
sS'gona'
p579
I99
sS'ai'
p580
I107
sS'ah'
p581
I1311
sS'aj'
p582
I62
sS'am'
p583
I11381
sS'al'
p584
I141
sS'an'
p585
I8558
sS'ap'
p586
I150
sS'as'
p587
I8089
sS'ar'
p588
I35
sS'au'
p589
I47
sS'at'
p590
I24788
sS'aw'
p591
I835
sS'ay'
p592
I54
sS'az'
p593
I68
sS'a-'
p594
I39
sS'a.'
p595
I52
sS'imagine'
p596
I291
sS'slipped'
p597
I38
sS'girls'
p598
I1168
sS'relationship'
p599
I106
sS'set'
p600
I864
sS'sex'
p601
I277
sS'see'
p602
I10695
sS'sec'
p603
I58
sS'sea'
p604
I147
sS'seo'
p605
I49
sS'drunk'
p606
I496
sS'community'
p607
I169
sS'funn'
p608
I53
sS'funk'
p609
I29
sS'walmart'
p610
I54
sS'sims'
p611
I102
sS'location'
p612
I98
sS'sighs'
p613
I66
sS'sight'
p614
I81
sS'santa'
p615
I77
sS'codes'
p616
I31
sS'actors'
p617
I27
sS'sides'
p618
I34
sS'summit'
p619
I31
sS'essay'
p620
I353
sS'garden'
p621
I505
sS'index'
p622
I26
sS'cheered'
p623
I37
sS'notebook'
p624
I61
sS'iplayer'
p625
I46
sS'ladies'
p626
I291
sS"mum's"
p627
I78
sS'jesus'
p628
I228
sS'sharon'
p629
I27
sS'gcse'
p630
I56
sS'steel'
p631
I28
sS'amongst'
p632
I31
sS"you'll"
p633
I777
sS'planted'
p634
I36
sS'lala'
p635
I26
sS'email'
p636
I918
sS'drum'
p637
I43
sS'drug'
p638
I55
sS'hottest'
p639
I45
sS'atlanta'
p640
I102
sS'glue'
p641
I39
sS'generous'
p642
I29
sS'onion'
p643
I46
sS'footage'
p644
I44
sS'springs'
p645
I40
sS'seeds'
p646
I34
sS'function'
p647
I75
sS'delivery'
p648
I97
sS'variety'
p649
I28
sS'oldest'
p650
I42
sS'drinkin'
p651
I62
sS'ale'
p652
I26
sS'+'
p653
I1143
sS'smoke'
p654
I162
sS'tweeties'
p655
I68
sS'indians'
p656
I30
sS'indiana'
p657
I43
sS'denver'
p658
I98
sS'flock'
p659
I27
sS'forth'
p660
I47
sS'skye'
p661
I31
sS'psych'
p662
I39
sS'requests'
p663
I66
sS'dumped'
p664
I34
sS'confirmed'
p665
I99
sS'norwegian'
p666
I41
sS'roomie'
p667
I40
sS'3pm'
p668
I62
sS'adding'
p669
I138
sS'27th'
p670
I40
sS'portuguese'
p671
I35
sS'comments'
p672
I313
sS'graduates'
p673
I31
sS'graduated'
p674
I64
sS'diner'
p675
I34
sS'anime'
p676
I65
sS'markets'
p677
I25
sS'r.i.p'
p678
I53
sS'hotter'
p679
I44
sS'reception'
p680
I57
sS'lineup'
p681
I27
sS'global'
p682
I64
sS'grape'
p683
I34
sS'appears'
p684
I84
sS'change'
p685
I970
sS'retweeted'
p686
I27
sS'sleeep'
p687
I120
sS'dedicated'
p688
I66
sS'december'
p689
I46
sS'court'
p690
I114
sS'paramore'
p691
I72
sS'nerve'
p692
I27
sS'birds'
p693
I239
sS'window'
p694
I374
sS'el'
p695
I104
sS'en'
p696
I122
sS'eh'
p697
I460
sS'ed'
p698
I118
sS'ea'
p699
I26
sS'ex'
p700
I131
sS'eu'
p701
I71
sS'et'
p702
I52
sS'ew'
p703
I163
sS'ep'
p704
I191
sS'es'
p705
I54
sS'er'
p706
I168
sS'shown'
p707
I48
sS'opened'
p708
I109
sS'shows'
p709
I619
sS'e-'
p710
I70
sS'e.'
p711
I25
sS'e!'
p712
I28
sS'ohio'
p713
I92
sS'impossible'
p714
I127
sS'breakfast'
p715
I1468
sS'sunset'
p716
I58
sS'heels'
p717
I106
sS'finish'
p718
I951
sS'theater'
p719
I77
sS'frankie'
p720
I35
sS'real'
p721
I1564
sS'read'
p722
I2073
sS'rear'
p723
I29
sS'recorded'
p724
I80
sS'credits'
p725
I33
sS'hectic'
p726
I65
sS'brighton'
p727
I71
sS'ittt'
p728
I54
sS'2nite'
p729
I159
sS'prepare'
p730
I120
sS'storage'
p731
I49
sS'nkotb'
p732
I76
sS'pointing'
p733
I36
sS'ahead'
p734
I516
sS'donnie'
p735
I100
sS'tracy'
p736
I28
sS'fool'
p737
I94
sS'food'
p738
I1651
sS'foot'
p739
I273
sS'feet'
p740
I456
sS'maths'
p741
I454
sS'ash'
p742
I68
sS'trees'
p743
I121
sS'battery'
p744
I228
sS'badminton'
p745
I26
sS'maintenance'
p746
I50
sS'else'
p747
I1212
sS'praying'
p748
I163
sS'$'
p749
I889
sS'march'
p750
I90
sS'run'
p751
I1277
sS'rum'
p752
I42
sS'rub'
p753
I95
sS'rolls'
p754
I99
sS'visits'
p755
I40
sS'requires'
p756
I32
sS'click'
p757
I229
sS'cupcakes'
p758
I141
sS'rotten'
p759
I39
sS'eminem'
p760
I66
sS'products'
p761
I78
sS'drops'
p762
I58
sS'agenda'
p763
I57
sS'fella'
p764
I41
sS'updating'
p765
I224
sS'affair'
p766
I28
sS'fuel'
p767
I37
sS'bells'
p768
I25
sS'werent'
p769
I42
sS'shy'
p770
I61
sS'she'
p771
I4967
sS'sho'
p772
I46
sS'neither'
p773
I192
sS'precious'
p774
I74
sS'addition'
p775
I42
sS'huhuhu'
p776
I29
sS'reflection'
p777
I27
sS'kick'
p778
I345
sS'loveee'
p779
I126
sS'candy'
p780
I149
sS'crispy'
p781
I30
sS'inner'
p782
I43
sS'dms'
p783
I41
sS'jamming'
p784
I35
sS'6pm'
p785
I79
sS'heading'
p786
I1049
sS'never'
p787
I3930
sS'tell'
p788
I2446
sS'worth'
p789
I806
sS'soaking'
p790
I28
sS'lucy'
p791
I41
sS'luck'
p792
I2220
sS'carry'
p793
I118
sS'ist'
p794
I46
sS'ish'
p795
I141
sS'isn'
p796
I212
sS'picking'
p797
I164
sS'near'
p798
I441
sS'neat'
p799
I90
sS'iz'
p800
I67
sS'ip'
p801
I28
sS'is'
p802
I53312
sS'it'
p803
I53705
sS'iv'
p804
I104
sS'ii'
p805
I122
sS'ik'
p806
I28
sS'im'
p807
I9926
sS'il'
p808
I91
sS'in'
p809
I47849
sS'ie'
p810
I95
sS'id'
p811
I281
sS'bottles'
p812
I49
sS'i?'
p813
I67
sS'i,'
p814
I50
sS'i.'
p815
I71
sS'i!'
p816
I25
sS'belfast'
p817
I43
sS'burn'
p818
I210
sS'pair'
p819
I184
sS'black'
p820
I629
sS'rays'
p821
I36
sS'designer'
p822
I63
sS'designed'
p823
I54
sS'maybe'
p824
I2930
sS'cute'
p825
I1838
sS'cuts'
p826
I47
sS'tomorow'
p827
I136
sS'finance'
p828
I33
sS'killer'
p829
I132
sS'killed'
p830
I275
sS'americans'
p831
I48
sS'wiki'
p832
I25
sS'calendar'
p833
I56
sS'killing'
p834
I417
sS'jo'
p835
I80
sS'disappointment'
p836
I39
sS'tub'
p837
I52
sS'arts'
p838
I56
sS'jb'
p839
I158
sS'dates'
p840
I126
sS'those'
p841
I2281
sS'rubbing'
p842
I44
sS'middle'
p843
I326
sS'same'
p844
I2517
sS'wifey'
p845
I60
sS'christina'
p846
I38
sS'audience'
p847
I66
sS'nose'
p848
I348
sS'cancel'
p849
I105
sS'joan'
p850
I33
sS'belated'
p851
I54
sS'girlfriend'
p852
I198
sS'tackle'
p853
I32
sS'starting'
p854
I1078
sS'lawyer'
p855
I25
sS'blood'
p856
I272
sS'pens'
p857
I64
sS'wizards'
p858
I26
sS'walls'
p859
I60
sS'suprise'
p860
I44
sS'idea'
p861
I1444
sS'insurance'
p862
I84
sS'compliments'
p863
I47
sS'commentary'
p864
I45
sS'nervous'
p865
I255
sS'cheaper'
p866
I55
sS'dangit'
p867
I32
sS'supply'
p868
I48
sS'create'
p869
I148
sS'ireland'
p870
I125
sS'moment'
p871
I775
sS'y'
p872
I390
sS'revising'
p873
I272
sS'chemistry'
p874
I107
sS'>.<'
p875
I96
sS'bridal'
p876
I34
sS'matters'
p877
I82
sS'pet'
p878
I189
sS'per'
p879
I160
sS'pen'
p880
I80
sS'pee'
p881
I82
sS'beans'
p882
I114
sS'homemade'
p883
I75
sS'forward'
p884
I2137
sS'wedding'
p885
I636
sS'groovy'
p886
I29
sS'groove'
p887
I35
sS'explaining'
p888
I27
sS'retweets'
p889
I36
sS'mannn'
p890
I48
sS'manny'
p891
I55
sS'giggle'
p892
I59
sS'addiction'
p893
I99
sS'firefly'
p894
I35
sS'5pm'
p895
I60
sS'areas'
p896
I27
sS"wasn't"
p897
I1131
sS'national'
p898
I152
sS'legit'
p899
I36
sS'instant'
p900
I65
sS'consider'
p901
I133
sS'passing'
p902
I138
sS'glorious'
p903
I143
sS'videos'
p904
I455
sS'shuttle'
p905
I26
sS'center'
p906
I172
sS'oops'
p907
I288
sS'studio'
p908
I325
sS'tests'
p909
I173
sS'works'
p910
I940
sS'tmr'
p911
I89
sS'tmw'
p912
I36
sS'panel'
p913
I33
sS'brands'
p914
I27
sS'buy'
p915
I1517
sS'bus'
p916
I660
sS'but'
p917
I29122
sS'bun'
p918
I27
sS'bum'
p919
I112
sS'bug'
p920
I238
sS'bud'
p921
I73
sS'minutes'
p922
I976
sS'\xe2\x80\xa6'
p923
I27
sS'\xe2\x80\x93'
p924
I98
sS'\xe2\x80\x94'
p925
I30
sS'street'
p926
I330
sS'auction'
p927
I40
sS'me'
p928
I34544
sS'md'
p929
I49
sS'ma'
p930
I299
sS'mc'
p931
I53
sS'mb'
p932
I26
sS'mm'
p933
I110
sS'mo'
p934
I231
sS'mi'
p935
I203
sS'mk'
p936
I29
sS'mj'
p937
I38
sS'mu'
p938
I31
sS'mt'
p939
I58
sS'mp'
p940
I32
sS'ms'
p941
I199
sS'mr'
p942
I591
sS'my'
p943
I63378
sS'end'
p944
I1875
sS'charging'
p945
I57
sS'enter'
p946
I132
sS'filling'
p947
I84
sS'goo'
p948
I53
sS'gon'
p949
I50
sS'god'
p950
I2194
sS'got'
p951
I13502
sS'gov'
p952
I34
sS'already'
p953
I3230
sS'?"'
p954
I185
sS'sober'
p955
I80
sS'serve'
p956
I54
sS'talking'
p957
I1191
sS'stood'
p958
I71
sS'veronicas'
p959
I32
sS'drivin'
p960
I38
sS'nightmares'
p961
I85
sS'protect'
p962
I34
sS'complex'
p963
I39
sS'rip'
p964
I255
sS'gift'
p965
I313
sS'3:30'
p966
I45
sS'medium'
p967
I27
sS'adore'
p968
I79
sS'netball'
p969
I54
sS'contemplating'
p970
I56
sS'town'
p971
I786
sS'bake'
p972
I89
sS'del'
p973
I40
sS'cinnamon'
p974
I59
sS'dropped'
p975
I297
sS'blocked'
p976
I169
sS'conversations'
p977
I54
sS'opera'
p978
I72
sS'pokemon'
p979
I56
sS'shorts'
p980
I124
sS'convention'
p981
I47
sS'r'
p982
I1409
sS'dining'
p983
I38
sS'visitors'
p984
I41
sS'gone'
p985
I1734
sS'byee'
p986
I28
sS'paying'
p987
I146
sS'shifts'
p988
I52
sS'uhm'
p989
I54
sS'except'
p990
I526
sS'scheduled'
p991
I56
sS'virginia'
p992
I45
sS'amber'
p993
I49
sS'jus'
p994
I380
sS'juz'
p995
I36
sS'politics'
p996
I63
sS'depending'
p997
I32
sS'simpsons'
p998
I46
sS'vibes'
p999
I77
sS'rats'
p1000
I37
sS'rate'
p1001
I123
sS'screens'
p1002
I29
sS'tryna'
p1003
I96
sS'buenos'
p1004
I33
sS'argentina'
p1005
I48
sS'gum'
p1006
I56
sS'paradise'
p1007
I60
sS'teach'
p1008
I189
sS'$5'
p1009
I32
sS'reckon'
p1010
I92
sS'woops'
p1011
I25
sS'tommorow'
p1012
I142
sS'procrastination'
p1013
I39
sS'nap'
p1014
I667
sS'anybody'
p1015
I191
sS'exhibition'
p1016
I29
sS'dvds'
p1017
I92
sS'3.5'
p1018
I38
sS'3.0'
p1019
I36
sS'newsletter'
p1020
I53
sS"we're"
p1021
I1015
sS'weights'
p1022
I26
sS'shanghai'
p1023
I38
sS'kris'
p1024
I242
sS'pushing'
p1025
I101
sS'ness'
p1026
I25
sS'mowing'
p1027
I39
sS'carrot'
p1028
I38
sS'luke'
p1029
I64
sS'permanent'
p1030
I34
sS'orange'
p1031
I233
sS'boring'
p1032
I1002
sS'asshole'
p1033
I47
sS'gahh'
p1034
I47
sS'hehehe'
p1035
I52
sS'makin'
p1036
I115
sS'respect'
p1037
I96
sS'painted'
p1038
I54
sS'beast'
p1039
I64
sS'helpful'
p1040
I101
sS'loser'
p1041
I166
sS'loses'
p1042
I46
sS'operation'
p1043
I52
sS'mines'
p1044
I71
sS'extension'
p1045
I29
sS'bitches'
p1046
I101
sS'coool'
p1047
I68
sS'record'
p1048
I385
sS"friend's"
p1049
I143
sS'thunder'
p1050
I103
sS'k'
p1051
I260
sS'supposed'
p1052
I640
sS'schools'
p1053
I82
sS'foundation'
p1054
I35
sS'basketball'
p1055
I123
sS'showed'
p1056
I124
sS'rusty'
p1057
I25
sS'shower'
p1058
I1027
sS'runner'
p1059
I38
sS'spent'
p1060
I628
sS'welll'
p1061
I50
sS'came'
p1062
I1302
sS'layout'
p1063
I101
sS'glasgow'
p1064
I90
sS'country'
p1065
I383
sS'worked'
p1066
I486
sS'birmingham'
p1067
I48
sS'filipino'
p1068
I51
sS'wrap'
p1069
I73
sS'constantly'
p1070
I59
sS'inside'
p1071
I572
sS'nyquil'
p1072
I25
sS'hangovers'
p1073
I33
sS'hola'
p1074
I56
sS'followin'
p1075
I42
sS'understanding'
p1076
I53
sS'fake'
p1077
I222
sS'angry'
p1078
I200
sS'scratched'
p1079
I35
sS'awesome'
p1080
I4876
sS'ahaha'
p1081
I28
sS'open'
p1082
I890
sS'ripping'
p1083
I28
sS'argument'
p1084
I41
sS'lawn'
p1085
I121
sS'laws'
p1086
I43
sS'assistant'
p1087
I32
sS'caring'
p1088
I39
sS'twitterville'
p1089
I102
sS'pinky'
p1090
I30
sS'lovers'
p1091
I58
sS'(i'
p1092
I265
sS'madness'
p1093
I57
sS'(a'
p1094
I29
sS'(:'
p1095
I405
sS'around'
p1096
I2200
sS'()'
p1097
I268
sS'(&'
p1098
I46
sS'lobster'
p1099
I39
sS'consuming'
p1100
I27
sS'transformers'
p1101
I51
sS'her'
p1102
I6396
sS'hes'
p1103
I263
sS'hey'
p1104
I4790
sS'hee'
p1105
I46
sS'heh'
p1106
I100
sS'handsome'
p1107
I66
sS'johnny'
p1108
I70
sS'mask'
p1109
I70
sS'mass'
p1110
I115
sS'appointment'
p1111
I141
sS'diary'
p1112
I31
sS'maggie'
p1113
I26
sS'morgan'
p1114
I38
sS'putting'
p1115
I360
sS'wrk'
p1116
I71
sS'sucker'
p1117
I39
sS'sucked'
p1118
I175
sS'nauseous'
p1119
I36
sS'reduce'
p1120
I33
sS'dragged'
p1121
I30
sS'enemy'
p1122
I40
sS'races'
p1123
I49
sS'knitting'
p1124
I57
sS'euro'
p1125
I26
sS'flippin'
p1126
I37
sS'kelly'
p1127
I135
sS'd'
p1128
I333
sS'continue'
p1129
I197
sS'curious'
p1130
I165
sS'u?'
p1131
I294
sS'u2'
p1132
I30
sS'u,'
p1133
I100
sS'u!'
p1134
I252
sS'elsewhere'
p1135
I33
sS'inches'
p1136
I36
sS'us'
p1137
I3366
sS'ur'
p1138
I2836
sS'um'
p1139
I273
sS'un'
p1140
I98
sS'ui'
p1141
I39
sS'uk'
p1142
I608
sS'fixing'
p1143
I108
sS'c\xc3\xb3'
p1144
I38
sS'having'
p1145
I3728
sS'race'
p1146
I387
sS'rach'
p1147
I26
sS'graduating'
p1148
I105
sS'friendfeed'
p1149
I26
sS'twitpic'
p1150
I197
sS'delay'
p1151
I71
sS'fits'
p1152
I67
sS'philosophy'
p1153
I38
sS'gentle'
p1154
I33
sS'lily'
p1155
I105
sS'oreos'
p1156
I32
sS'should'
p1157
I5639
sS'buttons'
p1158
I61
sS'pleeease'
p1159
I42
sS'ends'
p1160
I175
sS'invited'
p1161
I141
sS'invites'
p1162
I36
sS'lj'
p1163
I68
sS'spain'
p1164
I162
sS'ly'
p1165
I35
sS'</3'
p1166
I56
sS'matthew'
p1167
I68
sS'cedar'
p1168
I26
sS'blowing'
p1169
I67
sS'software'
p1170
I165
sS'pool'
p1171
I352
sS'\xc2\xa3'
p1172
I100
sS'irish'
p1173
I84
sS'ciao'
p1174
I47
sS'bike'
p1175
I508
sS'announced'
p1176
I56
sS'envious'
p1177
I41
sS'agony'
p1178
I26
sS'fever'
p1179
I254
sS'after'
p1180
I4649
sS'things'
p1181
I2738
sS'japan'
p1182
I108
sS'highlights'
p1183
I42
sS'woken'
p1184
I164
sS'rocky'
p1185
I46
sS'rocks'
p1186
I336
sS'lifted'
p1187
I28
sS'mourning'
p1188
I47
sS'created'
p1189
I118
sS'thick'
p1190
I43
sS'happily'
p1191
I60
sS'scenes'
p1192
I56
sS'anatomy'
p1193
I97
sS'webcam'
p1194
I49
sS'covering'
p1195
I31
sS'twitterverse'
p1196
I165
sS'fest'
p1197
I121
sS'property'
p1198
I33
sS'launched'
p1199
I41
sS'contact'
p1200
I191
sS'gods'
p1201
I68
sS'retreat'
p1202
I29
sS'honored'
p1203
I49
sS'beating'
p1204
I77
sS'tonights'
p1205
I48
sS'loyal'
p1206
I28
sS'charles'
p1207
I36
sS'curse'
p1208
I69
sS'prove'
p1209
I54
sS'car'
p1210
I1760
sS'cap'
p1211
I62
sS'cat'
p1212
I729
sS'can'
p1213
I12819
sS'cam'
p1214
I104
sS'cal'
p1215
I52
sS'cab'
p1216
I85
sS',"'
p1217
I44
sS',.'
p1218
I34
sS',i'
p1219
I27
sS'january'
p1220
I30
sS'happen'
p1221
I783
sS'cars'
p1222
I161
sS'carl'
p1223
I29
sS'card'
p1224
I463
sS'care'
p1225
I1027
sS'british'
p1226
I119
sS'checked'
p1227
I301
sS'price'
p1228
I205
sS']'
p1229
I500
sS'ferrari'
p1230
I43
sS'icecream'
p1231
I88
sS'saints'
p1232
I25
sS'alcoholic'
p1233
I33
sS'busted'
p1234
I62
sS'greeting'
p1235
I39
sS'ewww'
p1236
I117
sS'spamming'
p1237
I51
sS'sadness'
p1238
I92
sS"rt's"
p1239
I49
sS'time'
p1240
I13715
sS'newbie'
p1241
I40
sS':)'
p1242
I148600
sS':*'
p1243
I47
sS'loose'
p1244
I143
sS'alyssa'
p1245
I34
sS"y'"
p1246
I149
sS'held'
p1247
I75
sS':s'
p1248
I337
sS'ym'
p1249
I29
sS'yo'
p1250
I403
sS'ya'
p1251
I2347
sS'ye'
p1252
I61
sS"you've"
p1253
I506
sS'yr'
p1254
I320
sS'yu'
p1255
I89
sS'yt'
p1256
I34
sS'yw'
p1257
I28
sS'surrounded'
p1258
I42
sS'labs'
p1259
I26
sS'reason'
p1260
I784
sS'maple'
p1261
I26
sS'apprentice'
p1262
I66
sS'yeee'
p1263
I33
sS'logies'
p1264
I77
sS'experienced'
p1265
I36
sS'experiences'
p1266
I28
sS'latest'
p1267
I261
sS'hips'
p1268
I27
sS'alexander'
p1269
I40
sS'withdrawal'
p1270
I32
sS'jeff'
p1271
I103
sS'look'
p1272
I3255
sS'loop'
p1273
I77
sS'reads'
p1274
I44
sS'ready'
p1275
I3685
sS'11pm'
p1276
I47
sS'lasts'
p1277
I50
sS'ache'
p1278
I286
sS'nonsense'
p1279
I38
sS'uber'
p1280
I83
sS'sounded'
p1281
I102
sS'suits'
p1282
I49
sS'suite'
p1283
I41
sS'stadium'
p1284
I42
sS'poke'
p1285
I34
sS'wif'
p1286
I58
sS'wid'
p1287
I52
sS'win'
p1288
I1382
sS'wii'
p1289
I234
sS'wiv'
p1290
I34
sS'wit'
p1291
I441
sS'engineering'
p1292
I25
sS'concern'
p1293
I41
sS'nokia'
p1294
I76
sS'!.'
p1295
I86
sS'!:'
p1296
I27
sS'completely'
p1297
I450
sS'camper'
p1298
I35
sS'expired'
p1299
I42
sS'2mrw'
p1300
I25
sS'based'
p1301
I185
sS'tire'
p1302
I72
sS'!~'
p1303
I30
sS'thumb'
p1304
I60
sS'sara'
p1305
I78
sS'field'
p1306
I166
sS'vinci'
p1307
I26
sS'bucks'
p1308
I116
sS'coraline'
p1309
I43
sS'strange'
p1310
I257
sS'well'
p1311
I10360
sS'vids'
p1312
I127
sS'tongue'
p1313
I107
sS'washington'
p1314
I62
sS'erin'
p1315
I46
sS'eric'
p1316
I123
sS'hats'
p1317
I48
sS'accidently'
p1318
I32
sS'adult'
p1319
I75
sS'router'
p1320
I38
sS'president'
p1321
I57
sS'therapy'
p1322
I76
sS'meat'
p1323
I103
sS'meal'
p1324
I172
sS'mean'
p1325
I1677
sS'gunna'
p1326
I256
sS'features'
p1327
I77
sS'featured'
p1328
I62
sS'distance'
p1329
I57
sS'sounding'
p1330
I39
sS'disco'
p1331
I46
sS'fascinating'
p1332
I32
sS'subject'
p1333
I96
sS'00'
p1334
I63
sS'07'
p1335
I28
sS'08'
p1336
I41
sS'09'
p1337
I149
sS'urls'
p1338
I27
sS'loaded'
p1339
I57
sS'mouse'
p1340
I152
sS'garlic'
p1341
I50
sS'intern'
p1342
I28
sS'aunts'
p1343
I32
sS'aunty'
p1344
I25
sS'potato'
p1345
I79
sS"it'll"
p1346
I386
sS'makeup'
p1347
I135
sS'bruises'
p1348
I29
sS'bruised'
p1349
I50
sS'aye'
p1350
I105
sS'dude'
p1351
I1017
sS'w/out'
p1352
I31
sS'reviews'
p1353
I101
sS'confused'
p1354
I356
sS'map'
p1355
I59
sS'mas'
p1356
I26
sS'mau'
p1357
I25
sS'max'
p1358
I116
sS'mac'
p1359
I740
sS'mad'
p1360
I673
sS'mag'
p1361
I86
sS'mai'
p1362
I48
sS'mah'
p1363
I99
sS'mam'
p1364
I29
sS'wishing'
p1365
I794
sS'pitch'
p1366
I52
sS'cranky'
p1367
I48
sS'3rd'
p1368
I294
sS'org'
p1369
I40
sS'thing'
p1370
I3467
sS'think'
p1371
I9551
sS'cheese'
p1372
I426
sS'cheesy'
p1373
I60
sS'sailing'
p1374
I31
sS'switching'
p1375
I39
sS'cheesecake'
p1376
I73
sS'nearly'
p1377
I444
sS'cocktails'
p1378
I28
sS'teething'
p1379
I28
sS'6:30'
p1380
I42
sS'speech'
p1381
I117
sS'driven'
p1382
I40
sS'climbing'
p1383
I54
sS'pups'
p1384
I26
sS'facing'
p1385
I31
sS'mwah'
p1386
I63
sS'o.o'
p1387
I76
sS'blessed'
p1388
I289
sS'dreaming'
p1389
I116
sS'4:30'
p1390
I48
sS'strikes'
p1391
I32
sS'pacman'
p1392
I53
sS'deer'
p1393
I31
sS'deep'
p1394
I200
sS'drivers'
p1395
I75
sS'effin'
p1396
I76
sS'tireddd'
p1397
I36
sS"life's"
p1398
I44
sS'portable'
p1399
I38
sS"sister's"
p1400
I76
sS'eye'
p1401
I495
sS'splash'
p1402
I26
sS'bradie'
p1403
I66
sS'playing'
p1404
I1694
sS'dad'
p1405
I1066
sS'drake'
p1406
I36
sS'members'
p1407
I104
sS'dont'
p1408
I3702
sS'done'
p1409
I3781
sS'dong'
p1410
I30
sS'park'
p1411
I642
sS'dentist'
p1412
I242
sS'part'
p1413
I1140
sS'majority'
p1414
I42
sS'becca'
p1415
I30
sS'extremely'
p1416
I222
sS'common'
p1417
I124
sS'cakes'
p1418
I108
sS'danced'
p1419
I54
sS'dancer'
p1420
I28
sS'aches'
p1421
I79
sS'purpose'
p1422
I58
sS'gardening'
p1423
I105
sS'mirror'
p1424
I73
sS'jimmy'
p1425
I106
sS'lesson'
p1426
I253
sS'classic'
p1427
I178
sS'iii'
p1428
I32
sS'account'
p1429
I587
sS'obvious'
p1430
I61
sS'snacks'
p1431
I50
sS'lamb'
p1432
I70
sS'psyched'
p1433
I32
sS'lame'
p1434
I398
sS'lamp'
p1435
I27
sS'9am'
p1436
I93
sS'willing'
p1437
I93
sS'spell'
p1438
I150
sS'spelt'
p1439
I33
sS'twice'
p1440
I280
sS'5th'
p1441
I147
sS'messenger'
p1442
I40
sS'ruins'
p1443
I25
sS'completed'
p1444
I121
sS'unlikely'
p1445
I28
sS'inspiring'
p1446
I83
sS'360'
p1447
I70
sS'bull'
p1448
I105
sS'30am'
p1449
I91
sS'although'
p1450
I520
sS'actual'
p1451
I133
sS'boards'
p1452
I39
sS'playoff'
p1453
I30
sS'biggest'
p1454
I234
sS'4:'
p1455
I40
sS'48'
p1456
I46
sS'47'
p1457
I27
sS'44'
p1458
I29
sS'45'
p1459
I157
sS'42'
p1460
I53
sS'40'
p1461
I266
sS'41'
p1462
I33
sS'4,'
p1463
I39
sS'limited'
p1464
I68
sS'poorly'
p1465
I125
sS'forum'
p1466
I123
sS'preview'
p1467
I61
sS'jungle'
p1468
I36
sS'london'
p1469
I768
sS'potatoes'
p1470
I61
sS'ghosts'
p1471
I40
sS'hearing'
p1472
I220
sS'saga'
p1473
I28
sS'report'
p1474
I268
sS'noodles'
p1475
I96
sS'weak'
p1476
I116
sS'wear'
p1477
I539
sS'goddess'
p1478
I26
sS"havn't"
p1479
I31
sS'trust'
p1480
I241
sS'bands'
p1481
I117
sS'alabama'
p1482
I30
sS'tweeples'
p1483
I39
sS'hunt'
p1484
I93
sS'disappeared'
p1485
I70
sS'bangalore'
p1486
I38
sS'plug'
p1487
I82
sS'plus'
p1488
I585
sS'dayyy'
p1489
I66
sS'wireless'
p1490
I93
sS'focus'
p1491
I193
sS'environment'
p1492
I35
sS'hawaii'
p1493
I97
sS'cord'
p1494
I25
sS'dried'
p1495
I28
sS'russell'
p1496
I43
sS'geeky'
p1497
I37
sS'geeks'
p1498
I50
sS'painkillers'
p1499
I32
sS'leavin'
p1500
I55
sS'obsession'
p1501
I55
sS'calories'
p1502
I44
sS'butterflies'
p1503
I28
sS'bahamas'
p1504
I45
sS'cope'
p1505
I32
sS'cops'
p1506
I58
sS'copy'
p1507
I341
sS'outcome'
p1508
I27
sS'rent'
p1509
I115
sS'urgh'
p1510
I125
sS'convos'
p1511
I25
sS'college'
p1512
I827
sS'apologies'
p1513
I65
sS'pow'
p1514
I47
sS'pot'
p1515
I130
sS'por'
p1516
I34
sS'poo'
p1517
I146
sS'500'
p1518
I147
sS'blessing'
p1519
I55
sS'tiger'
p1520
I56
sS'ni'
p1521
I54
sS'downloads'
p1522
I43
sS'brisbane'
p1523
I53
sS'actress'
p1524
I48
sS'ng'
p1525
I179
sS'rose'
p1526
I115
sS'ross'
p1527
I58
sS'lmfao'
p1528
I80
sS'stand'
p1529
I305
sS'accounts'
p1530
I95
sS'hasnt'
p1531
I86
sS'barcelona'
p1532
I55
sS'all'
p1533
I19709
sS'ali'
p1534
I53
sS'abit'
p1535
I68
sS'hmmm'
p1536
I709
sS'thursday'
p1537
I571
sS'crush'
p1538
I138
sS'hungover'
p1539
I165
sS'basically'
p1540
I154
sS'advantage'
p1541
I76
sS'shade'
p1542
I29
sS'style'
p1543
I258
sS'pray'
p1544
I355
sS'sucking'
p1545
I41
sS'philippines'
p1546
I254
sS'expect'
p1547
I237
sS'wondered'
p1548
I47
sS'reallly'
p1549
I62
sS'feed'
p1550
I243
sS'feel'
p1551
I6245
sS'sympathy'
p1552
I42
sS'hotel'
p1553
I348
sS'nights'
p1554
I443
sS'nighty'
p1555
I133
sS'cigarette'
p1556
I36
sS'rts'
p1557
I83
sS'outfit'
p1558
I89
sS'annie'
p1559
I53
sS'crisps'
p1560
I31
sS'plants'
p1561
I80
sS'georgia'
p1562
I41
sS'couldve'
p1563
I26
sS'1st'
p1564
I702
sS'wonderland'
p1565
I29
sS'wanna'
p1566
I3138
sS'mommy'
p1567
I544
sS'momma'
p1568
I166
sS'msn'
p1569
I351
sS'msg'
p1570
I136
sS'problems'
p1571
I326
sS'simon'
p1572
I84
sS'sis'
p1573
I463
sS'sir'
p1574
I274
sS'sip'
p1575
I29
sS'sit'
p1576
I420
sS'six'
p1577
I204
sS'sin'
p1578
I36
sS'sim'
p1579
I37
sS'scrubs'
p1580
I91
sS'8.'
p1581
I45
sS'8:'
p1582
I48
sS'80'
p1583
I122
sS'85'
p1584
I31
sS'river'
p1585
I136
sS'unbelievably'
p1586
I26
sS'mumbai'
p1587
I53
sS'combo'
p1588
I68
sS'module'
p1589
I28
sS'"i\'m'
p1590
I68
sS'kisses'
p1591
I138
sS'gets'
p1592
I988
sS'whale'
p1593
I54
sS'approve'
p1594
I35
sS'realised'
p1595
I192
sS'batteries'
p1596
I46
sS'attractive'
p1597
I46
sS'yankee'
p1598
I27
sS'cinderella'
p1599
I27
sS'kidding'
p1600
I313
sS'made'
p1601
I3427
sS'temp'
p1602
I65
sS'shaving'
p1603
I27
sS'tired'
p1604
I3658
sS'tires'
p1605
I38
sS'fingers'
p1606
I427
sS'hero'
p1607
I217
sS'here'
p1608
I8720
sS'hers'
p1609
I37
sS'12th'
p1610
I41
sS'unit'
p1611
I60
sS'hoping'
p1612
I938
sS'drying'
p1613
I27
sS'1000'
p1614
I163
sS'r.i.p.'
p1615
I52
sS'shorter'
p1616
I48
sS'lambert'
p1617
I95
sS'trending'
p1618
I205
sS'spinning'
p1619
I65
sS'bitter'
p1620
I57
sS'bust'
p1621
I65
sS'bush'
p1622
I45
sS'hello'
p1623
I1548
sS'release'
p1624
I230
sS'med'
p1625
I32
sS'meh'
p1626
I178
sS'pity'
p1627
I144
sS'accident'
p1628
I172
sS'30th'
p1629
I52
sS'patient'
p1630
I69
sS'tuna'
p1631
I45
sS'tune'
p1632
I177
sS'ease'
p1633
I30
sS'easy'
p1634
I737
sS'east'
p1635
I178
sS'bobby'
p1636
I48
sS'slightly'
p1637
I188
sS'offer'
p1638
I256
sS'talents'
p1639
I25
sS'floor'
p1640
I249
sS'flood'
p1641
I40
sS'smell'
p1642
I337
sS'rents'
p1643
I38
sS'funeral'
p1644
I104
sS'prefer'
p1645
I220
sS'homesick'
p1646
I48
sS'oregon'
p1647
I38
sS'boyle'
p1648
I73
sS'begging'
p1649
I33
sS'latte'
p1650
I83
sS'turtle'
p1651
I42
sS'ova'
p1652
I31
sS'addicting'
p1653
I58
sS'ridiculous'
p1654
I127
sS'note'
p1655
I394
sS'sale'
p1656
I296
sS'salt'
p1657
I88
sS'morrissey'
p1658
I28
sS'slot'
p1659
I25
sS'slow'
p1660
I575
sS'goodluck'
p1661
I74
sS'settings'
p1662
I93
sS'borrow'
p1663
I81
sS'roger'
p1664
I31
sS'jobs'
p1665
I159
sS'spare'
p1666
I97
sS'boat'
p1667
I231
sS'cullen'
p1668
I34
sS'grumpy'
p1669
I80
sS'internets'
p1670
I55
sS'favorite'
p1671
I943
sS'walks'
p1672
I40
sS'tours'
p1673
I26
sS'richard'
p1674
I80
sS'sweetness'
p1675
I26
sS'jumping'
p1676
I70
sS'attitude'
p1677
I61
sS'1am'
p1678
I71
sS'blues'
p1679
I160
sS'it`s'
p1680
I26
sS'ironing'
p1681
I74
sS'yung'
p1682
I30
sS'wayne'
p1683
I46
sS'begins'
p1684
I158
sS'rofl'
p1685
I74
sS'sweetheart'
p1686
I110
sS'kissing'
p1687
I33
sS'<3'
p1688
I2330
sS'input'
p1689
I47
sS'buddies'
p1690
I95
sS'broadband'
p1691
I46
sS'temple'
p1692
I27
sS'repair'
p1693
I51
sS'garbage'
p1694
I36
sS'sneaky'
p1695
I49
sS'spending'
p1696
I514
sS'submit'
p1697
I40
sS'custom'
p1698
I68
sS':'
p1699
I18429
sS'ago'
p1700
I1213
sS'agh'
p1701
I51
sS'age'
p1702
I267
sS'oracle'
p1703
I56
sS'gossip'
p1704
I228
sS'chillin'
p1705
I384
sS'torture'
p1706
I62
sS'continues'
p1707
I72
sS'continued'
p1708
I29
sS'unite'
p1709
I26
sS'odd'
p1710
I164
sS'firefox'
p1711
I158
sS'terrified'
p1712
I42
sS'insomnia'
p1713
I180
sS'charity'
p1714
I64
sS'this'
p1715
I22091
sS'thin'
p1716
I50
sS'bothering'
p1717
I43
sS'cage'
p1718
I69
sS'doing'
p1719
I4065
sS'uppp'
p1720
I29
sS'craving'
p1721
I235
sS'touring'
p1722
I55
sS'device'
p1723
I61
sS'atmosphere'
p1724
I27
sS'lmaoo'
p1725
I26
sS'bedroom'
p1726
I119
sS'btw'
p1727
I1306
sS'neighbour'
p1728
I28
sS'xxx'
p1729
I1076
sS'optimistic'
p1730
I35
sS'idiot'
p1731
I164
sS'desk'
p1732
I249
sS'literally'
p1733
I206
sS'topshop'
p1734
I28
sS'blurry'
p1735
I26
sS'includes'
p1736
I32
sS'revise'
p1737
I201
sS'rule'
p1738
I145
sS'saved'
p1739
I156
sS'votes'
p1740
I53
sS'voted'
p1741
I146
sS'phones'
p1742
I136
sS'7th'
p1743
I84
sS'kudos'
p1744
I60
sS'itunes'
p1745
I363
sS'worst'
p1746
I598
sS'cameras'
p1747
I48
sS'tcot'
p1748
I44
sS'lousy'
p1749
I30
sS'comin'
p1750
I124
sS'comic'
p1751
I177
sS'kiwi'
p1752
I31
sS'hike'
p1753
I44
sS'youre'
p1754
I230
sS'boyfriends'
p1755
I33
sS'nephew'
p1756
I115
sS'mistake'
p1757
I148
sS'stink'
p1758
I31
sS'true'
p1759
I1266
sS'maya'
p1760
I32
sS'mayb'
p1761
I34
sS'looks'
p1762
I2447
sS'xbox'
p1763
I141
sS'columbus'
p1764
I33
sS'crystal'
p1765
I60
sS'dying'
p1766
I370
sS'brown'
p1767
I212
sS'brownie'
p1768
I42
sS'vegan'
p1769
I65
sS'vegas'
p1770
I399
sS'trouble'
p1771
I380
sS'brave'
p1772
I65
sS'regret'
p1773
I113
sS'diva'
p1774
I33
sS'breaking'
p1775
I237
sS'stockholm'
p1776
I26
sS'denmark'
p1777
I48
sS'couldn'
p1778
I171
sS'coulda'
p1779
I48
sS'zac'
p1780
I91
sS'eliminated'
p1781
I29
sS'recover'
p1782
I60
sS'batman'
p1783
I50
sS'notice'
p1784
I227
sS'online'
p1785
I1119
sS'coolest'
p1786
I98
sS'stickers'
p1787
I29
sS'two'
p1788
I2361
sS'heaps'
p1789
I110
sS'benefit'
p1790
I39
sS'ringtone'
p1791
I31
sS'valid'
p1792
I29
sS'you'
p1793
I58567
sS'building'
p1794
I208
sS'tomorrows'
p1795
I48
sS'casual'
p1796
I29
sS'emotions'
p1797
I35
sS'directions'
p1798
I35
sS'stayed'
p1799
I327
sS'tried'
p1800
I964
sS'tries'
p1801
I30
sS'actually'
p1802
I2457
sS'beyond'
p1803
I145
sS'fountain'
p1804
I27
sS'blip.fm'
p1805
I34
sS'expecting'
p1806
I131
sS'lil'
p1807
I627
sS'lit'
p1808
I68
sS'lip'
p1809
I107
sS'useless'
p1810
I76
sS'liz'
p1811
I72
sS'alpha'
p1812
I84
sS'clear'
p1813
I243
sS'clean'
p1814
I1011
sS'hyper'
p1815
I64
sS'circle'
p1816
I65
sS'frickin'
p1817
I34
sS'2moro'
p1818
I126
sS'both'
p1819
I1322
sS'sensitive'
p1820
I29
sS'bots'
p1821
I30
sS'headed'
p1822
I410
sS'header'
p1823
I27
sS'linux'
p1824
I106
sS'naps'
p1825
I62
sS'while'
p1826
I2537
sS'eating'
p1827
I1488
sS'block'
p1828
I192
sS'info'
p1829
I442
sS'rested'
p1830
I44
sS'practically'
p1831
I57
sS'youtube'
p1832
I865
sS'ride'
p1833
I731
sS'kenny'
p1834
I40
sS'majorly'
p1835
I27
sS'sweets'
p1836
I85
sS'masters'
p1837
I31
sS'roads'
p1838
I40
sS'membership'
p1839
I28
sS'wayyy'
p1840
I87
sS'bears'
p1841
I65
sS'beard'
p1842
I44
sS"weather's"
p1843
I26
sS'tabs'
p1844
I29
sS'2.0'
p1845
I53
sS'dodgy'
p1846
I39
sS'stats'
p1847
I74
sS'state'
p1848
I320
sS'minds'
p1849
I81
sS'c\xc3\xa1i'
p1850
I35
sS'lauren'
p1851
I118
sS'logged'
p1852
I59
sS'shed'
p1853
I47
sS'shes'
p1854
I270
sS'pt'
p1855
I55
sS'pg'
p1856
I33
sS'ph'
p1857
I25
sS'hosting'
p1858
I101
sS'cruel'
p1859
I79
sS'pm'
p1860
I313
sS'todays'
p1861
I145
sS'todayy'
p1862
I55
sS'presents'
p1863
I85
sS'saves'
p1864
I34
sS'batch'
p1865
I45
sS'even'
p1866
I4260
sS'ever'
p1867
I2924
sS'theres'
p1868
I331
sS'cali'
p1869
I173
sS'call'
p1870
I1809
sS'calm'
p1871
I130
sS','
p1872
I89284
sS'doug'
p1873
I44
sS'morninggg'
p1874
I25
sS'bat'
p1875
I49
sS'bar'
p1876
I408
sS'bay'
p1877
I201
sS'bag'
p1878
I336
sS'bad'
p1879
I5444
sS'bac'
p1880
I33
sS'ban'
p1881
I47
sS'bam'
p1882
I34
sS'bah'
p1883
I153
sS'brazil'
p1884
I174
sS'balance'
p1885
I62
sS'mexico'
p1886
I115
sS'sushi'
p1887
I201
sS'walkin'
p1888
I30
sS'unfair'
p1889
I93
sS'manual'
p1890
I39
sS'super'
p1891
I1217
sS"c'est"
p1892
I27
sS'offering'
p1893
I28
sS'finally'
p1894
I2984
sS'wait'
p1895
I5007
sS'everybody'
p1896
I513
sS'downtown'
p1897
I158
sS'avoiding'
p1898
I51
sS'thank'
p1899
I5127
sS'thang'
p1900
I42
sS'coaching'
p1901
I26
sS'views'
p1902
I71
sS'girl'
p1903
I2427
sS'living'
p1904
I503
sS'yest'
p1905
I41
sS'yess'
p1906
I95
sS'fast'
p1907
I801
sS'vienna'
p1908
I27
sS'surprising'
p1909
I39
sS'cheeseburger'
p1910
I26
sS'kool'
p1911
I41
sS'marc'
p1912
I32
sS'mark'
p1913
I327
sS'mart'
p1914
I33
sS'mars'
p1915
I44
sS'mary'
p1916
I139
sS'profiles'
p1917
I25
sS'hdd'
p1918
I30
sS'bags'
p1919
I139
sS'different'
p1920
I565
sS'struggling'
p1921
I97
sS'bottle'
p1922
I224
sS'perth'
p1923
I86
sS'lightning'
p1924
I50
sS'doggy'
p1925
I52
sS'practical'
p1926
I32
sS'premium'
p1927
I27
sS'movement'
p1928
I36
sS'promising'
p1929
I49
sS'techno'
p1930
I40
sS'buses'
p1931
I34
sS'destination'
p1932
I29
sS"ain't"
p1933
I245
sS'response'
p1934
I155
sS'swamped'
p1935
I25
sS'flower'
p1936
I90
sS'acting'
p1937
I175
sS'giveaway'
p1938
I53
sS'built'
p1939
I84
sS'build'
p1940
I146
sS'particularly'
p1941
I65
sS'11th'
p1942
I28
sS'merch'
p1943
I37
sS'upgraded'
p1944
I40
sS'raise'
p1945
I85
sS'tgif'
p1946
I119
sS'solid'
p1947
I67
sS'keys'
p1948
I134
sS"david's"
p1949
I33
sS'education'
p1950
I51
sS'follows'
p1951
I105
sS"'ve"
p1952
I339
sS'contacts'
p1953
I121
sS'remembered'
p1954
I178
sS'&'
p1955
I9199
sS'graduation'
p1956
I369
sS'few'
p1957
I2249
sS'gnite'
p1958
I61
sS'hoped'
p1959
I64
sS'hopes'
p1960
I215
sS'biggie'
p1961
I27
sS'%'
p1962
I536
sS'desert'
p1963
I52
sS'shock'
p1964
I76
sS'chicago'
p1965
I318
sS'cone'
p1966
I28
sS'lime'
p1967
I44
sS'bones'
p1968
I134
sS'kindness'
p1969
I28
sS"dvd's"
p1970
I25
sS'south'
p1971
I331
sS'lightening'
p1972
I25
sS'delongeday'
p1973
I39
sS'twittertakeover'
p1974
I45
sS'homes'
p1975
I36
sS'homee'
p1976
I34
sS'fucken'
p1977
I25
sS'fucked'
p1978
I183
sS'thought'
p1979
I2585
sS'journalism'
p1980
I29
sS'noise'
p1981
I122
sS'noisy'
p1982
I41
sS'guard'
p1983
I35
sS'hayfever'
p1984
I53
sS'risk'
p1985
I47
sS'rise'
p1986
I159
sS'25th'
p1987
I42
sS'phone'
p1988
I2485
sS'oven'
p1989
I89
sS'destroyed'
p1990
I55
sS'independent'
p1991
I29
sS'rad'
p1992
I66
sS'ran'
p1993
I361
sS'ram'
p1994
I64
sS'raw'
p1995
I72
sS'rat'
p1996
I31
sS'rap'
p1997
I54
sS'ray'
p1998
I113
sS'yankees'
p1999
I70
sS'bingo'
p2000
I25
sS'craft'
p2001
I40
sS'mayo'
p2002
I37
sS'cnt'
p2003
I107
sS'cnn'
p2004
I36
sS'booking'
p2005
I41
sS'efforts'
p2006
I39
sS'curry'
p2007
I77
sS'presence'
p2008
I56
sS'removed'
p2009
I80
sS'versions'
p2010
I40
sS'check'
p2011
I2280
sS'phoenix'
p2012
I75
sS'sucky'
p2013
I78
sS'2morrow'
p2014
I213
sS'baseball'
p2015
I157
sS'memory'
p2016
I169
sS'australian'
p2017
I66
sS'clicking'
p2018
I31
sS'cocktail'
p2019
I34
sS'birthday'
p2020
I2695
sS'mainly'
p2021
I50
sS"he's"
p2022
I181
sS'hamilton'
p2023
I42
sS'factory'
p2024
I77
sS'plastic'
p2025
I85
sS'senior'
p2026
I138
sS'woot'
p2027
I303
sS'wood'
p2028
I71
sS'wooo'
p2029
I337
sS'dreaded'
p2030
I30
sS'dye'
p2031
I81
sS'(y)'
p2032
I96
sS'review'
p2033
I292
sS'reminded'
p2034
I96
sS'reminder'
p2035
I84
sS'blow'
p2036
I110
sS'blog'
p2037
I1463
sS'samples'
p2038
I35
sS'intro'
p2039
I60
sS'requested'
p2040
I28
sS'may'
p2041
I2583
sS'lack'
p2042
I205
sS'everyones'
p2043
I96
sS'aaron'
p2044
I71
sS'ang'
p2045
I134
sS'leeds'
p2046
I71
sS'shite'
p2047
I46
sS'speeding'
p2048
I36
sS'shouldnt'
p2049
I70
sS'anh'
p2050
I36
sS"don't"
p2051
I9096
sS'forgive'
p2052
I88
sS'blister'
p2053
I28
sS'fancy'
p2054
I171
sS'passes'
p2055
I68
sS'passed'
p2056
I394
sS'syrup'
p2057
I53
sS'relieved'
p2058
I44
sS'reach'
p2059
I149
sS'windows'
p2060
I420
sS'hip'
p2061
I100
sS'his'
p2062
I3548
sS'hit'
p2063
I1117
sS'archuleta'
p2064
I141
sS'longest'
p2065
I83
sS'hii'
p2066
I36
sS'him'
p2067
I3872
sS'bars'
p2068
I76
sS'bare'
p2069
I33
sS'learnt'
p2070
I55
sS'became'
p2071
I84
sS'8am'
p2072
I132
sS'whos'
p2073
I65
sS'whom'
p2074
I46
sS'whoa'
p2075
I147
sS'stolen'
p2076
I101
sS'itchy'
p2077
I94
sS'spears'
p2078
I79
sS'wheres'
p2079
I49
sS'mariah'
p2080
I25
sS'eggs'
p2081
I255
sS'wnt'
p2082
I30
sS'z'
p2083
I26
sS'karma'
p2084
I66
sS'deals'
p2085
I38
sS'women'
p2086
I274
sS'gurl'
p2087
I68
sS'choose'
p2088
I179
sS'pending'
p2089
I25
sS'dive'
p2090
I27
sS'york'
p2091
I255
sS'1.5'
p2092
I56
sS'highschool'
p2093
I32
sS'sean'
p2094
I91
sS'typical'
p2095
I101
sS'chicken'
p2096
I445
sS'cache'
p2097
I25
sS'superb'
p2098
I35
sS'premiere'
p2099
I84
sS'english'
p2100
I843
sS'ahem'
p2101
I46
sS'searching'
p2102
I160
sS'empire'
p2103
I35
sS'mite'
p2104
I35
sS'warranty'
p2105
I28
sS'brush'
p2106
I53
sS"g'night"
p2107
I55
sS'goodness'
p2108
I263
sS'junk'
p2109
I92
sS'june'
p2110
I631
sS"'time"
p2111
I37
sS'widget'
p2112
I28
sS'golden'
p2113
I129
sS'catchy'
p2114
I48
sS'absolute'
p2115
I72
sS'18th'
p2116
I99
sS'mouth'
p2117
I295
sS'scream'
p2118
I81
sS'orleans'
p2119
I30
sS"baby's"
p2120
I35
sS'heating'
p2121
I26
sS'beloved'
p2122
I66
sS'match'
p2123
I328
sS'shadow'
p2124
I33
sS'festivities'
p2125
I41
sS'treadmill'
p2126
I40
sS'fish'
p2127
I306
sS'wordpress'
p2128
I115
sS'smashed'
p2129
I54
sS'duet'
p2130
I28
sS'devon'
p2131
I29
sS'osx'
p2132
I31
sS'raining'
p2133
I1100
sS'choice'
p2134
I314
sS'working'
p2135
I3804
sS'originally'
p2136
I39
sS'swollen'
p2137
I130
sS'episodes'
p2138
I238
sS'troubles'
p2139
I36
sS'sponsor'
p2140
I30
sS'internet'
p2141
I1008
sS'gordon'
p2142
I30
sS'saving'
p2143
I148
sS'illness'
p2144
I38
sS'buffet'
p2145
I45
sS'vision'
p2146
I43
sS'awards'
p2147
I100
sS's'
p2148
I211
sS"can't"
p2149
I7970
sS'wants'
p2150
I1381
sS'engaged'
p2151
I35
sS'deff'
p2152
I33
sS'tracking'
p2153
I36
sS'missy'
p2154
I55
sS'misss'
p2155
I48
sS'rush'
p2156
I124
sS'rs'
p2157
I29
sS'external'
p2158
I53
sS'sci'
p2159
I28
sS'checkin'
p2160
I52
sS'past'
p2161
I708
sS'pass'
p2162
I471
sS'clock'
p2163
I182
sS'full'
p2164
I1258
sS'experience'
p2165
I318
sS'door'
p2166
I383
sS'tested'
p2167
I33
sS'dooo'
p2168
I50
sS'signs'
p2169
I58
sS'weeds'
p2170
I32
sS'definition'
p2171
I32
sS'pairs'
p2172
I48
sS'tummy'
p2173
I432
sS'also'
p2174
I2588
sS'sometimes'
p2175
I889
sS'sunny'
p2176
I1208
sS'last.fm'
p2177
I35
sS'admire'
p2178
I44
sS'musicmonday'
p2179
I73
sS'rangers'
p2180
I33
sS'wives'
p2181
I25
sS'goddamn'
p2182
I34
sS'deserved'
p2183
I84
sS'deserves'
p2184
I71
sS'opens'
p2185
I32
sS'jacks'
p2186
I26
sS'chad'
p2187
I32
sS'chai'
p2188
I44
sS'char'
p2189
I28
sS'chap'
p2190
I28
sS'chat'
p2191
I531
sS'lang'
p2192
I103
sS'lane'
p2193
I49
sS'land'
p2194
I278
sS'totes'
p2195
I25
sS'uploaded'
p2196
I158
sS'thats'
p2197
I2255
sS'next'
p2198
I4578
sS'pencil'
p2199
I26
sS'process'
p2200
I142
sS'lock'
p2201
I72
sS'clarkson'
p2202
I27
sS'robot'
p2203
I51
sS'meantime'
p2204
I27
sS'bump'
p2205
I55
sS'yous'
p2206
I47
sS'wahhh'
p2207
I38
sS'worldwide'
p2208
I28
sS'jay'
p2209
I101
sS'jaw'
p2210
I42
sS'terminal'
p2211
I38
sS'jam'
p2212
I172
sS'bristol'
p2213
I33
sS'indonesia'
p2214
I54
sS'web'
p2215
I487
sS'wee'
p2216
I198
sS'wed'
p2217
I138
sS'wel'
p2218
I32
sS'wes'
p2219
I25
sS'wet'
p2220
I362
sS'yrs'
p2221
I184
sS'places'
p2222
I237
sS'lately'
p2223
I356
sS'illusion'
p2224
I45
sS'searched'
p2225
I31
sS'nursery'
p2226
I37
sS'postponed'
p2227
I36
sS'sarah'
p2228
I252
sS'blocking'
p2229
I53
sS'heartless'
p2230
I34
sS'recovery'
p2231
I69
sS'appreciate'
p2232
I481
sS'safe'
p2233
I618
sS'l'
p2234
I116
sS'john'
p2235
I327
sS'lucas'
p2236
I59
sS'grave'
p2237
I35
sS'lewis'
p2238
I50
sS'w/o'
p2239
I116
sS'away'
p2240
I2745
sS'attacked'
p2241
I42
sS'wheel'
p2242
I78
sS'musical'
p2243
I142
sS'shout'
p2244
I327
sS'cooler'
p2245
I71
sS'confusing'
p2246
I117
sS'asking'
p2247
I360
sS'adorable'
p2248
I261
sS'peek'
p2249
I41
sS'peep'
p2250
I25
sS'needles'
p2251
I28
sS'guessed'
p2252
I42
sS'beds'
p2253
I38
sS'sooon'
p2254
I91
sS'cost'
p2255
I163
sS'pillow'
p2256
I81
sS"didn't"
p2257
I3838
sS'product'
p2258
I103
sS'no1'
p2259
I33
sS'non'
p2260
I127
sS'noo'
p2261
I105
sS'now'
p2262
I21418
sS'nor'
p2263
I97
sS'replay'
p2264
I42
sS'twitterland'
p2265
I133
sS"day's"
p2266
I46
sS'invitation'
p2267
I36
sS'launching'
p2268
I32
sS'equipment'
p2269
I28
sS'discovered'
p2270
I180
sS'knowww'
p2271
I43
sS'jeans'
p2272
I163
sS'amy'
p2273
I165
sS'using'
p2274
I795
sS"'s"
p2275
I12509
sS'assembly'
p2276
I27
sS"'n"
p2277
I42
sS"'i"
p2278
I42
sS'podcast'
p2279
I131
sS'month'
p2280
I849
sS'w/my'
p2281
I37
sS'random'
p2282
I477
sS'chuckle'
p2283
I25
sS'arent'
p2284
I130
sS'unlucky'
p2285
I29
sS'heartbeat'
p2286
I25
sS'systems'
p2287
I41
sS'bryan'
p2288
I35
sS'houses'
p2289
I53
sS'tf2'
p2290
I26
sS'horse'
p2291
I137
sS'hundred'
p2292
I35
sS'boredom'
p2293
I57
sS'justice'
p2294
I42
sS'grocery'
p2295
I138
sS'spray'
p2296
I47
sS'lived'
p2297
I193
sS'lives'
p2298
I228
sS'lie'
p2299
I290
sS'owww'
p2300
I93
sS'eep'
p2301
I29
sS'eee'
p2302
I80
sS'studyin'
p2303
I30
sS'e'
p2304
I196
sS'friendly'
p2305
I146
sS'convert'
p2306
I27
sS'salvation'
p2307
I44
sS'coldplay'
p2308
I62
sS'charming'
p2309
I36
sS'ticket'
p2310
I358
sS'diggin'
p2311
I27
sS'powerful'
p2312
I51
sS'warcraft'
p2313
I26
sS'ankle'
p2314
I168
sS'girlies'
p2315
I35
sS'cellphone'
p2316
I42
sS'tend'
p2317
I84
sS'tent'
p2318
I50
sS'replying'
p2319
I117
sS'ship'
p2320
I96
sS'shoulders'
p2321
I49
sS'smoking'
p2322
I114
sS'lincoln'
p2323
I28
sS'necessary'
p2324
I62
sS'pinpoint'
p2325
I42
sS'north'
p2326
I244
sS'stat'
p2327
I29
sS'star'
p2328
I1167
sS'stay'
p2329
I1468
sS'whoops'
p2330
I66
sS'likely'
p2331
I143
sS"someone's"
p2332
I60
sS'mimi'
p2333
I27
sS'guests'
p2334
I54
sS'foods'
p2335
I71
sS'amazing'
p2336
I2976
sS'before'
p2337
I3129
sS'arrested'
p2338
I31
sS'skins'
p2339
I49
sS'bite'
p2340
I144
sS'hawks'
p2341
I51
sS'ginger'
p2342
I63
sS'telly'
p2343
I59
sS'tells'
p2344
I117
sS'annoyed'
p2345
I190
sS'kutner'
p2346
I28
sS'earl'
p2347
I43
sS'wears'
p2348
I37
sS'lotion'
p2349
I30
sS'cousin'
p2350
I285
sS'damned'
p2351
I37
sS'yaay'
p2352
I62
sS'yaaa'
p2353
I47
sS'commission'
p2354
I25
sS'interest'
p2355
I118
sS'disappear'
p2356
I42
sS'flops'
p2357
I37
sS'yeh'
p2358
I183
sS'yea'
p2359
I913
sS'yey'
p2360
I153
sS'yep'
p2361
I794
sS'yes'
p2362
I4614
sS'yer'
p2363
I107
sS'yet'
p2364
I2957
sS'royal'
p2365
I60
sS'somehow'
p2366
I221
sS"u're"
p2367
I72
sS'magazine'
p2368
I122
sS'flying'
p2369
I234
sS'muffins'
p2370
I71
sS'holla'
p2371
I96
sS'holly'
p2372
I54
sS'roomies'
p2373
I30
sS'weekend'
p2374
I5426
sS'jacket'
p2375
I104
sS'anticipation'
p2376
I26
sS'hooray'
p2377
I128
sS'unexpected'
p2378
I68
sS'dealing'
p2379
I70
sS'arvo'
p2380
I37
sS'filled'
p2381
I173
sS'sake'
p2382
I62
sS'140'
p2383
I155
sS'upside'
p2384
I73
sS'rehearsal'
p2385
I88
sS'takin'
p2386
I92
sS'storms'
p2387
I57
sS'morning'
p2388
I10365
sS'enough'
p2389
I1635
sS'judging'
p2390
I31
sS'^'
p2391
I323
sS'sleeping'
p2392
I1088
sS'insomniac'
p2393
I33
sS'twittered'
p2394
I54
sS'twitterer'
p2395
I25
sS'images'
p2396
I87
sS'outs'
p2397
I35
sS'knife'
p2398
I33
sS'coupon'
p2399
I26
sS'imagination'
p2400
I31
sS'again'
p2401
I7195
sS'europe'
p2402
I190
sS'allergy'
p2403
I60
sS'commute'
p2404
I39
sS'ramen'
p2405
I31
sS'washing'
p2406
I198
sS'perspective'
p2407
I49
sS'caffeine'
p2408
I106
sS'lasagna'
p2409
I25
sS'misery'
p2410
I33
sS'landed'
p2411
I127
sS'golfing'
p2412
I31
sS'messed'
p2413
I194
sS'pcd'
p2414
I36
sS'#musicmonday'
p2415
I33
sS'showers'
p2416
I79
sS'couch'
p2417
I259
sS'idiots'
p2418
I43
sS'express'
p2419
I92
sS'breast'
p2420
I34
sS'pissed'
p2421
I307
sS'restaurant'
p2422
I169
sS'elections'
p2423
I25
sS'2night'
p2424
I61
sS'development'
p2425
I70
sS'shape'
p2426
I101
sS'alternative'
p2427
I55
sS'cut'
p2428
I728
sS'cus'
p2429
I70
sS'cup'
p2430
I531
sS'danger'
p2431
I37
sS'cuz'
p2432
I926
sS'cud'
p2433
I48
sS'cum'
p2434
I44
sS'absolutely'
p2435
I610
sS'delish'
p2436
I47
sS'translate'
p2437
I42
sS'cafe'
p2438
I152
sS'presenting'
p2439
I26
sS'squeeze'
p2440
I38
sS'access'
p2441
I187
sS'homeee'
p2442
I49
sS'minnesota'
p2443
I30
sS'galaxy'
p2444
I34
sS'tsk'
p2445
I36
sS'apologize'
p2446
I59
sS'popping'
p2447
I45
sS'backwards'
p2448
I35
sS'explanation'
p2449
I30
sS'alton'
p2450
I29
sS'(n)'
p2451
I38
sS'sparks'
p2452
I25
sS'regularly'
p2453
I40
sS'attempting'
p2454
I96
sS'sisters'
p2455
I233
sS'gooodnight'
p2456
I42
sS'sweety'
p2457
I42
sS'gma'
p2458
I29
sS'snuggle'
p2459
I46
sS'justin'
p2460
I167
sS'terry'
p2461
I35
sS'wack'
p2462
I44
sS'globe'
p2463
I56
sS'bestfriend'
p2464
I56
sS'hide'
p2465
I102
sS'supplies'
p2466
I36
sS'tx'
p2467
I86
sS'tv'
p2468
I1411
sS'tn'
p2469
I32
sS'tm'
p2470
I30
sS'spike'
p2471
I28
sS'jaljeera'
p2472
I40
sS'elizabeth'
p2473
I28
sS'400'
p2474
I64
sS'iowa'
p2475
I36
sS'alex'
p2476
I226
sS'saturday'
p2477
I1416
sS't-'
p2478
I94
sS'nite'
p2479
I840
sS'filter'
p2480
I37
sS'.com'
p2481
I82
sS'brandon'
p2482
I53
sS'exactly'
p2483
I514
sS'entertaining'
p2484
I115
sS'colors'
p2485
I79
sS'despite'
p2486
I144
sS'goodbyes'
p2487
I28
sS'generally'
p2488
I70
sS'disturbing'
p2489
I37
sS'conference'
p2490
I194
sS'"you'
p2491
I28
sS'sings'
p2492
I72
sS'cherry'
p2493
I104
sS'twitterfon'
p2494
I71
sS'orlando'
p2495
I110
sS'avatar'
p2496
I185
sS'twitterfox'
p2497
I32
sS'scrabble'
p2498
I29
sS'dinner'
p2499
I1705
sS'setting'
p2500
I167
sS'clouds'
p2501
I130
sS'impressive'
p2502
I77
sS'level'
p2503
I203
sS'cloudy'
p2504
I166
sS'ouch'
p2505
I411
sS'entertain'
p2506
I63
sS'exams'
p2507
I844
sS'athens'
p2508
I26
sS'nursing'
p2509
I50
sS'vodafone'
p2510
I32
sS'weathers'
p2511
I26
sS'tommorrow'
p2512
I66
sS'debating'
p2513
I41
sS'catching'
p2514
I304
sS':o)'
p2515
I28
sS'animation'
p2516
I50
sS'surf'
p2517
I46
sS'sure'
p2518
I3647
sS'donation'
p2519
I25
sS'urge'
p2520
I58
sS'guitar'
p2521
I432
sS'featuring'
p2522
I34
sS'going'
p2523
I14881
sS'career'
p2524
I117
sS'nighter'
p2525
I68
sS'tipsy'
p2526
I31
sS'without'
p2527
I1541
sS'delhi'
p2528
I47
sS'picture'
p2529
I981
sS'competition'
p2530
I136
sS'googled'
p2531
I32
sS'beaches'
p2532
I37
sS'taste'
p2533
I341
sS'tasty'
p2534
I113
sS"swift's"
p2535
I28
sS'roses'
p2536
I53
sS'spoilers'
p2537
I43
sS'wife'
p2538
I488
sS'wifi'
p2539
I147
sS'websites'
p2540
I65
sS'dairy'
p2541
I34
sS'list'
p2542
I842
sS'lisa'
p2543
I101
sS'christian'
p2544
I73
sS'tragedy'
p2545
I25
sS'milkshake'
p2546
I35
sS'hurray'
p2547
I48
sS'hurrah'
p2548
I49
sS'flat'
p2549
I240
sS'flag'
p2550
I43
sS'lighting'
p2551
I41
sS'began'
p2552
I26
sS'avenue'
p2553
I26
sS'bout'
p2554
I886
sS'celeb'
p2555
I60
sS'weight'
p2556
I203
sS'wishin'
p2557
I49
sS'8:30'
p2558
I52
sS'traditional'
p2559
I39
sS'defense'
p2560
I38
sS'dudes'
p2561
I71
sS'village'
p2562
I63
sS'demand'
p2563
I66
sS'wierd'
p2564
I42
sS'atcha'
p2565
I29
sS'retro'
p2566
I28
sS'range'
p2567
I74
sS'auntie'
p2568
I47
sS'question'
p2569
I534
sS'summertime'
p2570
I27
sS'today'
p2571
I16212
sS'users'
p2572
I115
sS'happier'
p2573
I101
sS'alien'
p2574
I30
sS'gang'
p2575
I76
sS'itll'
p2576
I26
sS'confirmation'
p2577
I58
sS"you'd"
p2578
I301
sS"you's"
p2579
I25
sS'ummm'
p2580
I161
sS'unavailable'
p2581
I26
sS'clever'
p2582
I93
sS'aight'
p2583
I31
sS'toddler'
p2584
I33
sS'taco'
p2585
I109
sS'holiday'
p2586
I1022
sS'salsa'
p2587
I48
sS"doesn't"
p2588
I1909
sS'clip'
p2589
I94
sS'local'
p2590
I271
sS'gmail'
p2591
I130
sS'general'
p2592
I159
sS'thus'
p2593
I59
sS'promo'
p2594
I82
sS'banging'
p2595
I33
sS'wonders'
p2596
I147
sS').'
p2597
I492
sS'transfer'
p2598
I56
sS'cake'
p2599
I557
sS'stoopid'
p2600
I25
sS'electricity'
p2601
I39
sS'prize'
p2602
I83
sS'oooh'
p2603
I476
sS'dorm'
p2604
I49
sS'dork'
p2605
I58
sS"i'd"
p2606
I1722
sS"i'm"
p2607
I27239
sS'txt'
p2608
I157
sS'cheating'
p2609
I39
sS'relay'
p2610
I39
sS'relax'
p2611
I298
sS'organized'
p2612
I43
sS'chennai'
p2613
I28
sS'duvet'
p2614
I29
sS'dsi'
p2615
I38
sS'listed'
p2616
I52
sS'letter'
p2617
I117
sS'asia'
p2618
I59
sS'cousins'
p2619
I194
sS'blew'
p2620
I65
sS'fair'
p2621
I572
sS'fail'
p2622
I777
sS'bleh'
p2623
I114
sS'darlin'
p2624
I44
sS"aren't"
p2625
I553
sS'fairly'
p2626
I69
sS'opinions'
p2627
I27
sS'sorting'
p2628
I75
sS'steph'
p2629
I77
sS'steps'
p2630
I77
sS'umm'
p2631
I186
sS'dollars'
p2632
I80
sS'tigers'
p2633
I36
sS'mighty'
p2634
I77
sS'cassie'
p2635
I29
sS'developers'
p2636
I37
sS'vet'
p2637
I139
sS'ver'
p2638
I28
sS'veg'
p2639
I37
sS'subway'
p2640
I104
sS'bonfire'
p2641
I31
sS'freaks'
p2642
I34
sS'freaky'
p2643
I36
sS'love'
p2644
I15267
sS'laughs'
p2645
I76
sS'`s'
p2646
I35
sS'visual'
p2647
I45
sS'involve'
p2648
I25
sS'muah'
p2649
I52
sS'spot'
p2650
I255
sS'filthy'
p2651
I27
sS'kong'
p2652
I40
sS'wolf'
p2653
I31
sS'sheffield'
p2654
I26
sS'typing'
p2655
I130
sS'hockey'
p2656
I122
sS'16th'
p2657
I61
sS'thousand'
p2658
I55
sS'bonjour'
p2659
I32
sS'hills'
p2660
I214
sS'breakdown'
p2661
I40
sS'weekly'
p2662
I88
sS'playin'
p2663
I98
sS'thinks'
p2664
I633
sS'industry'
p2665
I61
sS'technically'
p2666
I54
sS"they're"
p2667
I712
sS'original'
p2668
I199
sS'section'
p2669
I124
sS'hamster'
p2670
I37
sS'pick'
p2671
I612
sS'information'
p2672
I115
sS'sandwiches'
p2673
I51
sS'author'
p2674
I43
sS'archie'
p2675
I57
sS'skipped'
p2676
I38
sS'always'
p2677
I3581
sS'eva'
p2678
I39
sS'psychology'
p2679
I58
sS'highway'
p2680
I42
sS'bumped'
p2681
I30
sS'number'
p2682
I582
sS'appreciation'
p2683
I35
sS'grace'
p2684
I99
sS'mcfly'
p2685
I435
sS'determined'
p2686
I55
sS'play'
p2687
I2139
sS'yawn'
p2688
I113
sS'plan'
p2689
I666
sS'session'
p2690
I284
sS'preparing'
p2691
I229
sS'sleeve'
p2692
I33
sS'hitting'
p2693
I154
sS'firm'
p2694
I25
sS'fire'
p2695
I368
sS"what's"
p2696
I852
sS'funny'
p2697
I1832
sS'sheesh'
p2698
I45
sS'every1'
p2699
I110
sS'link'
p2700
I1066
sS'line'
p2701
I535
sS'adium'
p2702
I27
sS'code'
p2703
I313
sS'cody'
p2704
I26
sS'led'
p2705
I50
sS'lee'
p2706
I99
sS'leg'
p2707
I272
sS'leo'
p2708
I36
sS'les'
p2709
I34
sS'let'
p2710
I3145
sS'mosquito'
p2711
I27
sS'333'
p2712
I180
sS'standing'
p2713
I157
sS'doubt'
p2714
I343
sS'animal'
p2715
I144
sS'nada'
p2716
I33
sS'delightful'
p2717
I34
sS'surely'
p2718
I151
sS'davis'
p2719
I39
sS'blows'
p2720
I75
sS'colleagues'
p2721
I41
sS'studying'
p2722
I862
sS'classy'
p2723
I46
sS'bikes'
p2724
I41
sS'stickam'
p2725
I31
sS'vitamin'
p2726
I53
sS'degrees'
p2727
I212
sS'surprisingly'
p2728
I85
sS'dust'
p2729
I82
sS'dock'
p2730
I31
sS'command'
p2731
I26
sS'kiddies'
p2732
I36
sS'awesomely'
p2733
I25
sS'transport'
p2734
I40
sS'sister'
p2735
I809
sS'angeles'
p2736
I38
sS'construction'
p2737
I42
sS'recognize'
p2738
I51
sS'above'
p2739
I117
sS'apartment'
p2740
I223
sS'study'
p2741
I993
sS'bunnies'
p2742
I41
sS'ordinary'
p2743
I29
sS'bday'
p2744
I583
sS'bookstore'
p2745
I36
sS'affected'
p2746
I27
sS'recovering'
p2747
I137
sS'strength'
p2748
I73
sS'smoked'
p2749
I33
sS'd.'
p2750
I27
sS"d'"
p2751
I32
sS'd:'
p2752
I218
sS'do'
p2753
I15249
sS'dl'
p2754
I39
sS'dm'
p2755
I519
sS'dj'
p2756
I153
sS'dk'
p2757
I36
sS'dh'
p2758
I78
sS'di'
p2759
I107
sS'dd'
p2760
I78
sS'de'
p2761
I321
sS'db'
p2762
I26
sS'dc'
p2763
I173
sS'da'
p2764
I565
sS'dw'
p2765
I45
sS'dt'
p2766
I28
sS'du'
p2767
I48
sS'dr'
p2768
I257
sS'ds'
p2769
I81
sS'depends'
p2770
I125
sS'o_o'
p2771
I76
sS'mangoes'
p2772
I28
sS'props'
p2773
I62
sS'co-'
p2774
I25
sS'cop'
p2775
I61
sS'cos'
p2776
I514
sS'cow'
p2777
I68
sS'coz'
p2778
I430
sS'com'
p2779
I379
sS'con'
p2780
I118
sS'voice'
p2781
I578
sS'moring'
p2782
I27
sS'eps'
p2783
I50
sS'babes'
p2784
I95
sS'caps'
p2785
I115
sS'cape'
p2786
I64
sS'korean'
p2787
I61
sS'security'
p2788
I112
sS'dead'
p2789
I763
sS'three'
p2790
I741
sS'bmth'
p2791
I32
sS'interested'
p2792
I294
sS'blast'
p2793
I337
sS'hell'
p2794
I1147
sS'lakers'
p2795
I207
sS'hiking'
p2796
I59
sS'productive'
p2797
I297
sS'listened'
p2798
I149
sS'haircut'
p2799
I176
sS'norway'
p2800
I208
sS'wont'
p2801
I845
sS'inevitable'
p2802
I35
sS'amazingly'
p2803
I74
sS'friend'
p2804
I2506
sS'angel'
p2805
I160
sS'13th'
p2806
I42
sS'anger'
p2807
I34
sS'ground'
p2808
I113
sS'powerpoint'
p2809
I25
sS'yumm'
p2810
I50
sS'article'
p2811
I325
sS'talented'
p2812
I123
sS'sesh'
p2813
I27
sS'mentally'
p2814
I36
sS'speed'
p2815
I161
sS'desktop'
p2816
I152
sS'treatment'
p2817
I46
sS'lads'
p2818
I28
sS'lady'
p2819
I645
sS'piece'
p2820
I278
sS'eddie'
p2821
I34
sS'choc'
p2822
I73
sS'chop'
p2823
I32
sS'researching'
p2824
I34
sS'#asot400'
p2825
I42
sS'cottage'
p2826
I29
sS'hire'
p2827
I62
sS'describe'
p2828
I45
sS'nerd'
p2829
I122
sS'coverage'
p2830
I54
sS'jedi'
p2831
I25
sS'ultra'
p2832
I27
sS'hurry'
p2833
I155
sS'nina'
p2834
I29
sS'vs'
p2835
I281
sS'nine'
p2836
I80
sS'pushed'
p2837
I48
sS'bugs'
p2838
I139
sS'dig'
p2839
I106
sS'bass'
p2840
I106
sS'base'
p2841
I57
sS'bash'
p2842
I40
sS'jordan'
p2843
I152
sS'deciding'
p2844
I42
sS'towards'
p2845
I103
sS'eaten'
p2846
I179
sS'during'
p2847
I566
sS'wot'
p2848
I75
sS'wow'
p2849
I2763
sS'woo'
p2850
I527
sS'woe'
p2851
I31
sS'belong'
p2852
I106
sS'creation'
p2853
I25
sS'pounding'
p2854
I30
sS'daylight'
p2855
I37
sS'adults'
p2856
I42
sS'cotton'
p2857
I30
sS'deleting'
p2858
I36
sS'flu'
p2859
I808
sS'soup'
p2860
I268
sS'experiment'
p2861
I42
sS';'
p2862
I1810
sS'9th'
p2863
I62
sS'focused'
p2864
I50
sS'arrive'
p2865
I146
sS'belgian'
p2866
I28
sS'don\xc2\xb4t'
p2867
I51
sS'vibe'
p2868
I35
sS'mode'
p2869
I180
sS'secretly'
p2870
I26
sS"one's"
p2871
I86
sS'celtics'
p2872
I162
sS'route'
p2873
I81
sS'keep'
p2874
I2780
sS'keen'
p2875
I70
sS'austin'
p2876
I122
sS'lovato'
p2877
I49
sS'p.s'
p2878
I43
sS'antonio'
p2879
I42
sS'correctly'
p2880
I53
sS'munching'
p2881
I26
sS'thanx'
p2882
I326
sS'kicks'
p2883
I67
sS'xoxoxo'
p2884
I46
sS'inn'
p2885
I25
sS'lambs'
p2886
I30
sS'jesse'
p2887
I48
sS'paycheck'
p2888
I25
sS'accurate'
p2889
I28
sS'liking'
p2890
I208
sS'hp'
p2891
I68
sS'hv'
p2892
I101
sS'hw'
p2893
I189
sS'hk'
p2894
I64
sS'hi'
p2895
I2475
sS'ho'
p2896
I33
sS'hm'
p2897
I212
sS'ha'
p2898
I459
sS'hd'
p2899
I132
sS"u've"
p2900
I31
sS'balcony'
p2901
I77
sS'rescue'
p2902
I79
sS'blisters'
p2903
I39
sS'companies'
p2904
I48
sS'correct'
p2905
I142
sS'new'
p2906
I9620
sS'net'
p2907
I255
sS'spec'
p2908
I25
sS'homie'
p2909
I84
sS'messages'
p2910
I290
sS'fuckin'
p2911
I162
sS'chem'
p2912
I73
sS'fields'
p2913
I27
sS'rockstar'
p2914
I47
sS'scrap'
p2915
I25
sS'mcr'
p2916
I31
sS'exception'
p2917
I26
sS'shame'
p2918
I544
sS'pandora'
p2919
I40
sS'track'
p2920
I410
sS'yelling'
p2921
I35
sS'delete'
p2922
I127
sS'hangin'
p2923
I95
sS'felt'
p2924
I504
sS'fell'
p2925
I575
sS'billion'
p2926
I44
sS'marks'
p2927
I79
sS'priceless'
p2928
I47
sS'olive'
p2929
I51
sS'effort'
p2930
I118
sS'wallet'
p2931
I89
sS'growing'
p2932
I162
sS'crazy'
p2933
I1282
sS'pure'
p2934
I126
sS'canberra'
p2935
I30
sS'pointed'
p2936
I27
sS'bullshit'
p2937
I54
sS'pizza'
p2938
I502
sS'stupid'
p2939
I1301
sS'earlier'
p2940
I562
sS'monster'
p2941
I119
sS'cracks'
p2942
I34
sS'curled'
p2943
I28
sS'reading'
p2944
I1315
sS'cancer'
p2945
I175
sS'totally'
p2946
I1532
sS'drain'
p2947
I37
sS'4'
p2948
I3481
sS'doll'
p2949
I86
sS'seconds'
p2950
I178
sS'drums'
p2951
I64
sS'island'
p2952
I238
sS'buggy'
p2953
I28
sS'hatin'
p2954
I26
sS'talks'
p2955
I68
sS'jonas'
p2956
I621
sS'der'
p2957
I40
sS'dev'
p2958
I56
sS'dew'
p2959
I37
sS'dem'
p2960
I30
sS'den'
p2961
I63
sS'dee'
p2962
I40
sS'def'
p2963
I324
sS'drained'
p2964
I43
sS'entry'
p2965
I109
sS'pleasure'
p2966
I290
sS'everyone'
p2967
I3881
sS'pathetic'
p2968
I76
sS'pleasant'
p2969
I91
sS'mami'
p2970
I36
sS'mama'
p2971
I300
sS'needle'
p2972
I31
sS'trip'
p2973
I1149
sS'restart'
p2974
I30
sS'patiently'
p2975
I25
sS'prices'
p2976
I75
sS'heya'
p2977
I77
sS'heyy'
p2978
I169
sS'spend'
p2979
I650
sS'infected'
p2980
I41
sS'bored'
p2981
I2085
sS'peanut'
p2982
I120
sS'themselves'
p2983
I77
sS'lg'
p2984
I44
sS'le'
p2985
I117
sS'lb'
p2986
I31
sS'la'
p2987
I811
sS'lo'
p2988
I67
sS'll'
p2989
I254
sS'lk'
p2990
I28
sS'li'
p2991
I25
sS'lp'
p2992
I26
sS'criminal'
p2993
I25
sS'tues'
p2994
I91
sS'aaawww'
p2995
I27
sS'retail'
p2996
I39
sS'finest'
p2997
I29
sS'messing'
p2998
I72
sS'chats'
p2999
I25
sS'wakes'
p3000
I52
sS'miserable'
p3001
I159
sS'supported'
p3002
I29
sS'value'
p3003
I74
sS'offically'
p3004
I27
sS'doesnt'
p3005
I580
sS'rting'
p3006
I34
sS'memphis'
p3007
I31
sS'wise'
p3008
I118
sS'wish'
p3009
I5888
sS'hate'
p3010
I3840
sS'enjoy'
p3011
I2216
sS'shining'
p3012
I349
sS'breathe'
p3013
I119
sS'join'
p3014
I699
sS'entertained'
p3015
I41
sS'mornin'
p3016
I338
sS'writers'
p3017
I44
sS'thesis'
p3018
I74
sS'fiction'
p3019
I32
sS'washed'
p3020
I83
sS'ceiling'
p3021
I34
sS'western'
p3022
I44
sS'-'
p3023
I20724
sS'shots'
p3024
I191
sS'tattoos'
p3025
I42
sS'resist'
p3026
I98
sS'confusion'
p3027
I27
sS'beef'
p3028
I74
sS'been'
p3029
I7119
sS'bees'
p3030
I78
sS'fallon'
p3031
I27
sS'greatest'
p3032
I178
sS'newcastle'
p3033
I101
sS'specific'
p3034
I47
sS'spongebob'
p3035
I59
sS'escape'
p3036
I101
sS'core'
p3037
I55
sS'corn'
p3038
I65
sS'diamond'
p3039
I32
sS'commercials'
p3040
I51
sS'posh'
p3041
I35
sS'thirty'
p3042
I31
sS'unbelievable'
p3043
I31
sS'begun'
p3044
I49
sS'strangely'
p3045
I37
sS'theory'
p3046
I134
sS'boobs'
p3047
I61
sS'lmao'
p3048
I973
sS'require'
p3049
I35
sS'and'
p3050
I65786
sS'ana'
p3051
I41
sS'ann'
p3052
I42
sS'ant'
p3053
I28
sS'any'
p3054
I3492
sS'falls'
p3055
I74
sS'connor'
p3056
I52
sS'recipe'
p3057
I101
sS'regarding'
p3058
I45
sS'#2'
p3059
I53
sS'#1'
p3060
I80
sS'robbed'
p3061
I37
sS'someone'
p3062
I2489
sS'events'
p3063
I133
sS'changing'
p3064
I164
sS'kingdom'
p3065
I39
sS'pacific'
p3066
I42
sS'provided'
p3067
I27
sS'legal'
p3068
I96
sS'biscuits'
p3069
I61
sS'lmaooo'
p3070
I36
sS'taylor'
p3071
I367
sS'srry'
p3072
I30
sS'worse'
p3073
I572
sS'bubbles'
p3074
I38
sS'teh'
p3075
I79
sS'ten'
p3076
I182
sS'tea'
p3077
I908
sS'ted'
p3078
I43
sS'tee'
p3079
I84
sS'options'
p3080
I79
sS'benefits'
p3081
I31
sS'september'
p3082
I93
sS'mission'
p3083
I131
sS'4pm'
p3084
I51
sS'health'
p3085
I183
sS'eff'
p3086
I88
sS'added'
p3087
I369
sS'10am'
p3088
I88
sS'pr'
p3089
I78
sS'ps'
p3090
I369
sS'pb'
p3091
I34
sS'pc'
p3092
I380
sS'pa'
p3093
I137
sS'pe'
p3094
I73
sS'pj'
p3095
I37
sS'pi'
p3096
I28
sS'po'
p3097
I28
sS'loading'
p3098
I70
sS'lovin'
p3099
I202
sS'arthur'
p3100
I30
sS'understood'
p3101
I53
sS't_t'
p3102
I33
sS'canal'
p3103
I41
sS'xoxo'
p3104
I577
sS"week's"
p3105
I72
sS'fed'
p3106
I184
sS'fee'
p3107
I31
sS'feb'
p3108
I28
sS'fer'
p3109
I25
sS'sort'
p3110
I373
sS'sore'
p3111
I818
sS'hunny'
p3112
I44
sS'regards'
p3113
I38
sS'refreshing'
p3114
I68
sS'saddest'
p3115
I39
sS'responses'
p3116
I35
sS'subscribe'
p3117
I61
sS'cross'
p3118
I151
sS'fighting'
p3119
I194
sS'cmon'
p3120
I26
sS'other'
p3121
I2547
sS'crackin'
p3122
I25
sS'yellow'
p3123
I123
sS'specially'
p3124
I46
sS'spoon'
p3125
I33
sS'replace'
p3126
I90
sS'paperwork'
p3127
I72
sS'example'
p3128
I88
sS'soaked'
p3129
I61
sS'amusing'
p3130
I70
sS'thrilled'
p3131
I69
sS'lessons'
p3132
I160
sS'browser'
p3133
I96
sS'waaay'
p3134
I116
sS'pregnancy'
p3135
I25
sS'waaah'
p3136
I36
sS'haters'
p3137
I45
sS'european'
p3138
I50
sS'desire'
p3139
I36
sS'creek'
p3140
I33
sS'losing'
p3141
I275
sS'thankful'
p3142
I128
sS'magazines'
p3143
I33
sS'nova'
p3144
I29
sS'150'
p3145
I53
sS"'?"
p3146
I59
sS"'!"
p3147
I91
sS"'."
p3148
I221
sS"',"
p3149
I98
sS'ehhh'
p3150
I30
sS"'t"
p3151
I5059
sS'snooze'
p3152
I41
sS'leave'
p3153
I1705
sS'brilliant'
p3154
I316
sS'improving'
p3155
I36
sS'truly'
p3156
I253
sS'3'
p3157
I2833
sS'nation'
p3158
I41
sS'square'
p3159
I106
sS'city'
p3160
I873
sS'stuffed'
p3161
I110
sS'bits'
p3162
I122
sS'depressed'
p3163
I253
sS'allen'
p3164
I153
sS'sport'
p3165
I91
sS'drive'
p3166
I884
sS'bright'
p3167
I266
sS'worried'
p3168
I355
sS'worries'
p3169
I283
sS'awesomeness'
p3170
I90
sS'coursework'
p3171
I157
sS'rest'
p3172
I1289
sS'dark'
p3173
I438
sS'darn'
p3174
I260
sS'dare'
p3175
I112
sS'refer'
p3176
I32
sS'package'
p3177
I96
sS'housewives'
p3178
I109
sS'adam'
p3179
I479
sS'ty'
p3180
I233
sS'tu'
p3181
I51
sS'tr'
p3182
I51
sS'tp'
p3183
I31
sS'to'
p3184
I111162
sS'tail'
p3185
I45
sS'tj'
p3186
I27
sS'th'
p3187
I181
sS'ti'
p3188
I28
sS'te'
p3189
I59
sS'ta'
p3190
I150
sS't?'
p3191
I27
sS't4'
p3192
I36
sS'owned'
p3193
I53
sS'gosh'
p3194
I371
sS'pearl'
p3195
I47
sS'gorgeous'
p3196
I568
sS'canceled'
p3197
I125
sS'brit'
p3198
I51
sS'shld'
p3199
I40
sS'aaa'
p3200
I45
sS'aah'
p3201
I64
sS'factor'
p3202
I41
sS'cry'
p3203
I751
sS'jade'
p3204
I51
sS'compliment'
p3205
I93
sS'knowing'
p3206
I223
sS'thou'
p3207
I65
sS'extreme'
p3208
I83
sS'error'
p3209
I154
sS'person'
p3210
I1008
sS'sydney'
p3211
I241
sS'format'
p3212
I57
sS'formal'
p3213
I45
sS'pals'
p3214
I35
sS'palm'
p3215
I77
sS'pale'
p3216
I35
sS'shortstack'
p3217
I31
sS'seemed'
p3218
I123
sS'tru'
p3219
I27
sS'invented'
p3220
I48
sS'{'
p3221
I78
sS'altho'
p3222
I33
sS'leftover'
p3223
I31
sS'practicing'
p3224
I48
sS"they've"
p3225
I101
sS'dougie'
p3226
I84
sS'betta'
p3227
I35
sS'betty'
p3228
I46
sS'lot'
p3229
I2212
sS'coolio'
p3230
I25
sS'courtesy'
p3231
I34
sS'face'
p3232
I1182
sS'fact'
p3233
I477
sS'fuzzball'
p3234
I27
sS'travis'
p3235
I36
sS'site'
p3236
I1069
sS'rooms'
p3237
I51
sS'chairs'
p3238
I25
sS'peas'
p3239
I47
sS'lasted'
p3240
I58
sS'whack'
p3241
I29
sS'lecture'
p3242
I85
sS'officially'
p3243
I501
sS'crunch'
p3244
I47
sS'items'
p3245
I80
sS'-i'
p3246
I32
sS'band'
p3247
I584
sS'bang'
p3248
I98
sS'bank'
p3249
I602
sS'whining'
p3250
I31
sS'hooked'
p3251
I99
sS'delicious'
p3252
I330
sS'albert'
p3253
I31
sS'luxury'
p3254
I31
sS'weeding'
p3255
I25
sS'nambu'
p3256
I26
sS'skipping'
p3257
I56
sS'perform'
p3258
I105
sS'bunny'
p3259
I139
sS'bastards'
p3260
I32
sS'takes'
p3261
I378
sS'months'
p3262
I771
sS'people'
p3263
I4749
sS'promises'
p3264
I30
sS'promised'
p3265
I95
sS'belive'
p3266
I51
sS'excuse'
p3267
I203
sS'grateful'
p3268
I108
sS'absolutly'
p3269
I26
sS'hannah'
p3270
I387
sS'kitten'
p3271
I97
sS'heart'
p3272
I1049
sS'topic'
p3273
I192
sS'heard'
p3274
I1126
sS'forms'
p3275
I43
sS'keri'
p3276
I27
sS'domain'
p3277
I80
sS'worthy'
p3278
I65
sS'looking'
p3279
I3575
sS'xo'
p3280
I325
sS'xd'
p3281
I943
sS'xx'
p3282
I1594
sS'xp'
p3283
I108
sS'x]'
p3284
I26
sS'x)'
p3285
I36
sS'x-'
p3286
I86
sS'cornwall'
p3287
I29
sS'sociology'
p3288
I34
sS'x3'
p3289
I25
sS'michelle'
p3290
I86
sS'sidekick'
p3291
I29
sS'fifth'
p3292
I26
sS'upgrade'
p3293
I116
sS'celebrate'
p3294
I269
sS'jquery'
p3295
I27
sS'thurs'
p3296
I103
sS'between'
p3297
I423
sS'comeback'
p3298
I33
sS'trick'
p3299
I93
sS'favorites'
p3300
I67
sS'severe'
p3301
I33
sS'breeze'
p3302
I38
sS'shouts'
p3303
I33
sS't'
p3304
I256
sS'starship'
p3305
I31
sS'log'
p3306
I141
sS'lol'
p3307
I4621
sS'los'
p3308
I63
sS'low'
p3309
I330
sS'lou'
p3310
I29
sS'home-'
p3311
I31
sS'cookies'
p3312
I287
sS'appearance'
p3313
I41
sS'nana'
p3314
I43
sS'taken'
p3315
I491
sS'dread'
p3316
I25
sS'banks'
p3317
I28
sS'dream'
p3318
I794
sS'mcdonalds'
p3319
I107
sS'publish'
p3320
I35
sS'trance'
p3321
I49
sS'kat'
p3322
I63
sS'kay'
p3323
I93
sS'northern'
p3324
I46
sS'damn'
p3325
I2367
sS'damm'
p3326
I27
sS'bikini'
p3327
I48
sS'biking'
p3328
I56
sS'older'
p3329
I203
sS'remaining'
p3330
I44
sS'lacking'
p3331
I33
sS'game'
p3332
I2078
sS'smells'
p3333
I170
sS'humid'
p3334
I37
sS'assignments'
p3335
I135
sS'booty'
p3336
I38
sS'boots'
p3337
I123
sS'booth'
p3338
I53
sS'picked'
p3339
I269
sS'crap'
p3340
I870
sS'crab'
p3341
I36
sS'cram'
p3342
I27
sS'twitts'
p3343
I37
sS'closes'
p3344
I30
sS'(8)'
p3345
I32
sS'perfectly'
p3346
I106
sS'cya'
p3347
I57
sS'thts'
p3348
I42
sS'intentions'
p3349
I25
sS'endless'
p3350
I56
sS'gray'
p3351
I70
sS'gran'
p3352
I32
sS'grab'
p3353
I143
sS'quit'
p3354
I185
sS'quiz'
p3355
I126
sS'wooohooo'
p3356
I63
sS'dose'
p3357
I70
sS'clown'
p3358
I28
sS'page'
p3359
I760
sS'e-mail'
p3360
I67
sS'tweeters'
p3361
I202
sS'compatible'
p3362
I26
sS'equally'
p3363
I29
sS'couldnt'
p3364
I284
sS'tissues'
p3365
I33
sS'bck'
p3366
I29
sS'smack'
p3367
I32
sS'dry'
p3368
I218
sS'ignoring'
p3369
I88
sS'___'
p3370
I47
sS'setup'
p3371
I81
sS'caused'
p3372
I54
sS'untill'
p3373
I62
sS'replacing'
p3374
I27
sS'roast'
p3375
I145
sS'velvet'
p3376
I27
sS'reader'
p3377
I80
sS'struggle'
p3378
I42
sS'jackman'
p3379
I64
sS'favs'
p3380
I47
sS'ditch'
p3381
I36
sS'hollywood'
p3382
I88
sS'gym'
p3383
I769
sS'fairytale'
p3384
I29
sS'sees'
p3385
I52
sS'modern'
p3386
I64
sS'seee'
p3387
I33
sS'seen'
p3388
I1402
sS'seem'
p3389
I771
sS'seek'
p3390
I49
sS'm'
p3391
I253
sS'hunger'
p3392
I42
sS'monica'
p3393
I48
sS'kicked'
p3394
I190
sS'future'
p3395
I425
sS'lazy'
p3396
I655
sS'und'
p3397
I31
sS'uni'
p3398
I456
sS'shoulder'
p3399
I116
sS'html'
p3400
I31
sS'whats'
p3401
I615
sS'teeth'
p3402
I279
sS'managed'
p3403
I258
sS'manager'
p3404
I93
sS'tacos'
p3405
I58
sS'hbo'
p3406
I36
sS'yoghurt'
p3407
I27
sS'gate'
p3408
I34
sS'becuz'
p3409
I29
sS'smelly'
p3410
I41
sS'canada'
p3411
I249
sS'suspended'
p3412
I46
sS'little'
p3413
I3928
sS'anyone'
p3414
I1704
sS'properly'
p3415
I205
sS'dick'
p3416
I82
sS'dull'
p3417
I122
sS'over'
p3418
I5266
sS'happend'
p3419
I40
sS'kidney'
p3420
I33
sS'pile'
p3421
I71
sS'pill'
p3422
I36
sS'server'
p3423
I207
sS'either'
p3424
I1171
sS'crunchy'
p3425
I30
sS'confirm'
p3426
I32
sS'mixed'
p3427
I112
sS'inbox'
p3428
I70
sS'redbull'
p3429
I44
sS'important'
p3430
I321
sS'chris'
p3431
I321
sS'sneeze'
p3432
I33
sS'suns'
p3433
I45
sS'mommies'
p3434
I78
sS'returning'
p3435
I49
sS'wiped'
p3436
I28
sS'rafa'
p3437
I26
sS'awkward'
p3438
I81
sS'advice'
p3439
I252
sS"that'd"
p3440
I26
sS"that's"
p3441
I3387
sS'oxford'
p3442
I49
sS'ashes'
p3443
I28
sS'fist'
p3444
I34
sS'waking'
p3445
I544
sS'orders'
p3446
I83
sS'networks'
p3447
I26
sS'idol'
p3448
I349
sS'lion'
p3449
I48
sS'whyyy'
p3450
I62
sS'burned'
p3451
I106
sS'nashville'
p3452
I60
sS'folding'
p3453
I28
sS'ubuntu'
p3454
I111
sS'ldn'
p3455
I25
sS'letting'
p3456
I251
sS'homies'
p3457
I37
sS'300'
p3458
I121
sS'goods'
p3459
I35
sS'steven'
p3460
I39
sS'boys'
p3461
I807
sS'jonathan'
p3462
I56
sS'excuses'
p3463
I34
sS'3g'
p3464
I54
sS'3d'
p3465
I108
sS'3:'
p3466
I55
sS'39'
p3467
I26
sS'33'
p3468
I159
sS'32'
p3469
I48
sS'31'
p3470
I52
sS'30'
p3471
I746
sS'37'
p3472
I31
sS'35'
p3473
I86
sS'34'
p3474
I42
sS'3,'
p3475
I38
sS'3!'
p3476
I29
sS'upcoming'
p3477
I84
sS'ace'
p3478
I141
sS'f'
p3479
I166
sS'yeaaah'
p3480
I32
sS'me?!'
p3481
I38
sS'greater'
p3482
I29
sS'classics'
p3483
I25
sS'ballard'
p3484
I32
sS'apparently'
p3485
I606
sS'mia'
p3486
I120
sS'mic'
p3487
I51
sS'mid'
p3488
I88
sS'mix'
p3489
I228
sS'mit'
p3490
I31
sS'request'
p3491
I141
sS'skinny'
p3492
I52
sS'kardashians'
p3493
I58
sS'greece'
p3494
I52
sS'agree'
p3495
I894
sS'ab'
p3496
I30
sS'ad'
p3497
I218
sS'madre'
p3498
I43
sS'finishes'
p3499
I30
sS'finished'
p3500
I1880
sS'sausages'
p3501
I63
sS'volunteer'
p3502
I55
sS'multi'
p3503
I32
sS'almost'
p3504
I1831
sS'reporting'
p3505
I29
sS'ohhh'
p3506
I390
sS'pepper'
p3507
I64
sS'about'
p3508
I11884
sS'chatting'
p3509
I178
sS'goin'
p3510
I753
sS'bicycle'
p3511
I43
sS'zach'
p3512
I41
sS"ariel's"
p3513
I37
sS'stray'
p3514
I33
sS'grief'
p3515
I30
sS'addictive'
p3516
I114
sS'm?i'
p3517
I28
sS'm?t'
p3518
I26
sS'heavenly'
p3519
I26
sS'icky'
p3520
I60
sS'hopeless'
p3521
I42
sS'characters'
p3522
I155
sS'murder'
p3523
I41
sS'10th'
p3524
I57
sS'snow'
p3525
I292
sS'though'
p3526
I5614
sS'radio'
p3527
I630
sS'hoedown'
p3528
I45
sS'approach'
p3529
I35
sS'games'
p3530
I496
sS'quickly'
p3531
I201
sS'communion'
p3532
I30
sS'drugs'
p3533
I65
sS'kentucky'
p3534
I51
sS'thumbs'
p3535
I99
sS'judge'
p3536
I79
sS'successfully'
p3537
I43
sS'everything'
p3538
I1657
sS'chapter'
p3539
I120
sS'cowboy'
p3540
I25
sS'virgin'
p3541
I77
sS'coach'
p3542
I98
sS'states'
p3543
I164
sS'gta'
p3544
I25
sS'gtg'
p3545
I25
sS'offers'
p3546
I57
sS'term'
p3547
I221
sS"shouldn't"
p3548
I283
sS'grad'
p3549
I113
sS'iam'
p3550
I52
sS'ian'
p3551
I53
sS'district'
p3552
I26
sS'nathan'
p3553
I44
sS'sells'
p3554
I29
sS'hungry'
p3555
I852
sS'mister'
p3556
I45
sS'discussing'
p3557
I38
sS'farmers'
p3558
I27
sS'outside'
p3559
I1628
sS'nest'
p3560
I43
sS'reward'
p3561
I74
sS'til'
p3562
I895
sS'seems'
p3563
I1190
sS'furniture'
p3564
I68
sS'bracelet'
p3565
I57
sS'joking'
p3566
I76
sS'nails'
p3567
I218
sS'jeez'
p3568
I54
sS'buds'
p3569
I28
sS'promote'
p3570
I61
sS'activities'
p3571
I35
sS'what'
p3572
I13090
sS'semester'
p3573
I154
sS'pond'
p3574
I35
sS'pong'
p3575
I39
sS'developed'
p3576
I28
sS'developer'
p3577
I45
sS'beyonce'
p3578
I66
sS'stephen'
p3579
I115
sS'wouldn'
p3580
I46
sS'woulda'
p3581
I39
sS'ding'
p3582
I29
sS'dine'
p3583
I30
sS'dint'
p3584
I25
sS'finding'
p3585
I298
sS'7,'
p3586
I28
sS'75'
p3587
I58
sS'72'
p3588
I32
sS'70'
p3589
I98
sS'7:'
p3590
I52
sS'stands'
p3591
I39
sS'latin'
p3592
I34
sS'creating'
p3593
I105
sS'context'
p3594
I38
sS'political'
p3595
I35
sS'make-up'
p3596
I33
sS'disappointing'
p3597
I127
sS'pollen'
p3598
I37
sS'immediately'
p3599
I55
sS'tables'
p3600
I32
sS'tablet'
p3601
I27
sS'ubertwitter'
p3602
I25
sS'profit'
p3603
I28
sS'files'
p3604
I123
sS'junior'
p3605
I57
sS'raising'
p3606
I25
sS'jj'
p3607
I43
sS'rainy'
p3608
I642
sS'rains'
p3609
I110
sS'mock'
p3610
I30
sS'vice'
p3611
I26
sS'once'
p3612
I1207
sS'breathing'
p3613
I62
sS'someday'
p3614
I136
sS'goodies'
p3615
I46
sS'traveling'
p3616
I82
sS'capital'
p3617
I39
sS'calvin'
p3618
I28
sS"dad's"
p3619
I138
sS'patron'
p3620
I28
sS'brian'
p3621
I89
sS'instead'
p3622
I971
sS'light'
p3623
I415
sS'honestly'
p3624
I147
sS'spotify'
p3625
I79
sS'billy'
p3626
I72
sS'seesmic'
p3627
I34
sS'july'
p3628
I296
sS'j/k'
p3629
I42
sS'cracking'
p3630
I65
sS'class'
p3631
I1322
sS'chances'
p3632
I60
sS'ear'
p3633
I237
sS'eat'
p3634
I1652
sS'lemme'
p3635
I109
sS'watching'
p3636
I5210
sS'exam'
p3637
I1288
sS'amen'
p3638
I99
sS'a.m'
p3639
I28
sS'hindi'
p3640
I30
sS'liverpool'
p3641
I116
sS'present'
p3642
I269
sS'abandoned'
p3643
I39
sS'unlike'
p3644
I45
sS'encouragement'
p3645
I37
sS'lobby'
p3646
I30
sS'console'
p3647
I29
sS'smith'
p3648
I60
sS'miami'
p3649
I176
sS'talkin'
p3650
I145
sS'scared'
p3651
I508
sS'scares'
p3652
I27
sS'14th'
p3653
I34
sS'swear'
p3654
I206
sS'sweat'
p3655
I67
sS'hollyoaks'
p3656
I28
sS'jenny'
p3657
I62
sS'jenna'
p3658
I31
sS'brought'
p3659
I288
sS'until'
p3660
I2010
sS'glass'
p3661
I277
sS'jelous'
p3662
I30
sS'debut'
p3663
I37
sS'spider'
p3664
I68
sS'grapes'
p3665
I32
sS'ate'
p3666
I673
sS'atl'
p3667
I123
sS'veggie'
p3668
I47
sS'boston'
p3669
I296
sS'shall'
p3670
I595
sS'macbook'
p3671
I211
sS'prix'
p3672
I37
sS'goodnight'
p3673
I1468
sS'rolled'
p3674
I42
sS'roller'
p3675
I34
sS'billing'
p3676
I28
sS'flooding'
p3677
I25
sS'rushing'
p3678
I39
sS'prison'
p3679
I102
sS'right'
p3680
I6081
sS'joseph'
p3681
I30
sS'oscar'
p3682
I40
sS'push'
p3683
I151
sS'boreddd'
p3684
I33
sS'busy'
p3685
I1419
sS'w00t'
p3686
I68
sS'falling'
p3687
I344
sS'woop'
p3688
I124
sS'loving'
p3689
I875
sS'stress'
p3690
I218
sS'course'
p3691
I1222
sS'ketchup'
p3692
I30
sS'sunburnt'
p3693
I48
sS'training'
p3694
I374
sS'dunno'
p3695
I346
sS'massive'
p3696
I215
sS'spanish'
p3697
I282
sS'draft'
p3698
I51
sS'williams'
p3699
I45
sS'sophie'
p3700
I41
sS'sam'
p3701
I246
sS'sac'
p3702
I34
sS'sad'
p3703
I5052
sS'say'
p3704
I3829
sS'saw'
p3705
I2278
sS'sat'
p3706
I616
sS'aside'
p3707
I55
sS'wanting'
p3708
I287
sS'knew'
p3709
I738
sS'pages'
p3710
I225
sS'cobra'
p3711
I51
sS'prime'
p3712
I29
sS'effective'
p3713
I26
sS'canon'
p3714
I55
sS'mixtape'
p3715
I31
sS';p'
p3716
I113
sS';d'
p3717
I179
sS';]'
p3718
I49
sS'ddd'
p3719
I35
sS';)'
p3720
I1869
sS';('
p3721
I51
sS'stone'
p3722
I97
sS'netbook'
p3723
I50
sS'neighbor'
p3724
I65
sS'burning'
p3725
I142
sS'tshirt'
p3726
I41
sS'cutest'
p3727
I98
sS'fave'
p3728
I278
sS'select'
p3729
I29
sS'teen'
p3730
I51
sS'mall'
p3731
I330
sS'sent'
p3732
I689
sS'male'
p3733
I76
sS'freshly'
p3734
I32
sS'soundtrack'
p3735
I101
sS'patio'
p3736
I44
sS'naughty'
p3737
I79
sS'itz'
p3738
I26
sS'drives'
p3739
I53
sS'major'
p3740
I321
sS'brooklyn'
p3741
I46
sS'edited'
p3742
I32
sS'giants'
p3743
I36
sS'neeed'
p3744
I40
sS'preparation'
p3745
I28
sS'load'
p3746
I276
sS'loan'
p3747
I32
sS'monthly'
p3748
I39
sS'forgetting'
p3749
I70
sS'robin'
p3750
I68
sS'pound'
p3751
I36
sS'chase'
p3752
I72
sS'crying'
p3753
I406
sS'mummy'
p3754
I116
sS"son's"
p3755
I40
sS'netflix'
p3756
I44
sS'servers'
p3757
I64
sS'7am'
p3758
I150
sS'texted'
p3759
I65
sS'gettin'
p3760
I426
sS'involved'
p3761
I102
sS'eatin'
p3762
I68
sS'tools'
p3763
I72
sS'illegal'
p3764
I35
sS'carrying'
p3765
I38
sS'pour'
p3766
I37
sS'autograph'
p3767
I51
sS'laters'
p3768
I54
sS'grandpa'
p3769
I66
sS'pause'
p3770
I35
sS'stack'
p3771
I107
sS'wire'
p3772
I54
sS'waste'
p3773
I215
sS'less'
p3774
I832
sS'belgium'
p3775
I43
sS'hiding'
p3776
I97
sS'm\xc3\xa0'
p3777
I28
sS'shoppin'
p3778
I43
sS'chance'
p3779
I672
sS'inspiration'
p3780
I164
sS'\\o/'
p3781
I27
sS"we'll"
p3782
I570
sS"yesterday's"
p3783
I55
sS'brill'
p3784
I32
sS'saveearl'
p3785
I25
sS'fan'
p3786
I1029
sS'fam'
p3787
I370
sS'satisfied'
p3788
I57
sS'sony'
p3789
I55
sS'eventually'
p3790
I125
sS'target'
p3791
I124
sS'painful'
p3792
I196
sS'iron'
p3793
I93
sS'can\xc2\xb4t'
p3794
I33
sS'besties'
p3795
I48
sS'nin'
p3796
I38
sS'unfortunatly'
p3797
I30
sS'honoured'
p3798
I25
sS'pls'
p3799
I352
sS'plz'
p3800
I303
sS'emotional'
p3801
I75
sS'scored'
p3802
I59
sS'scores'
p3803
I37
sS'guitars'
p3804
I28
sS'upper'
p3805
I29
sS'discover'
p3806
I42
sS'migraines'
p3807
I33
sS'downloaded'
p3808
I162
sS'club'
p3809
I522
sS'clue'
p3810
I131
sS'?i'
p3811
I53
sS'?.'
p3812
I43
sS'?)'
p3813
I127
sS'?!'
p3814
I1582
sS'whenever'
p3815
I158
sS'curly'
p3816
I51
sS'jenn'
p3817
I33
sS'yourself'
p3818
I611
sS'that'
p3819
I33397
sS'thai'
p3820
I70
sS'flowers'
p3821
I236
sS'than'
p3822
I3596
sS'terrific'
p3823
I38
sS'title'
p3824
I145
sS'nearby'
p3825
I32
sS'learning'
p3826
I401
sS'worry'
p3827
I616
sS'charger'
p3828
I101
sS'charged'
p3829
I41
sS'thinking'
p3830
I1784
sS'comparison'
p3831
I30
sS'bedtime'
p3832
I198
sS'carpet'
p3833
I76
sS'creepy'
p3834
I112
sS'trainer'
p3835
I44
sS'trained'
p3836
I35
sS'rude'
p3837
I125
sS'ego'
p3838
I60
sS'egg'
p3839
I194
sS'event'
p3840
I345
sS'norwich'
p3841
I25
sS'beer'
p3842
I543
sS'albums'
p3843
I60
sS'sth'
p3844
I27
sS'scotland'
p3845
I109
sS'wats'
p3846
I72
sS'mobile'
p3847
I344
sS"g'morning"
p3848
I25
sS'celebrities'
p3849
I64
sS'basement'
p3850
I51
sS'throwing'
p3851
I98
sS'wkend'
p3852
I75
sS'whatever'
p3853
I470
sS'anxious'
p3854
I56
sS'some'
p3855
I11181
sS'statistics'
p3856
I34
sS'outing'
p3857
I27
sS'tehe'
p3858
I25
sS'button'
p3859
I231
sS'austria'
p3860
I34
sS'4hours'
p3861
I32
sS'soggy'
p3862
I26
sS'cruise'
p3863
I200
sS'front'
p3864
I486
sS'quality'
p3865
I229
sS'playlist'
p3866
I101
sS'need'
p3867
I8041
sS'connected'
p3868
I75
sS'scrambled'
p3869
I34
sS'michigan'
p3870
I65
sS'joint'
p3871
I54
sS'fallout'
p3872
I38
sS'a.m.'
p3873
I124
sS'listing'
p3874
I45
sS'-.-'
p3875
I86
sS'skill'
p3876
I28
sS'utah'
p3877
I41
sS'artists'
p3878
I70
sS'badass'
p3879
I46
sS'networking'
p3880
I78
sS'whoo'
p3881
I93
sS'signed'
p3882
I232
sS':d.'
p3883
I46
sS'pumped'
p3884
I84
sS'"the'
p3885
I30
sS'teaching'
p3886
I110
sS'force'
p3887
I148
sS'japanese'
p3888
I134
sS'lights'
p3889
I137
sS'eyebrows'
p3890
I41
sS'thankyou'
p3891
I222
sS'better'
p3892
I5550
sS'content'
p3893
I168
sS'somewhat'
p3894
I94
sS'wooot'
p3895
I43
sS'ringtones'
p3896
I53
sS'wearing'
p3897
I404
sS'19'
p3898
I139
sS'shaved'
p3899
I35
sS'1.'
p3900
I127
sS'gathering'
p3901
I39
sS'topics'
p3902
I145
sS'hahah'
p3903
I93
sS'left'
p3904
I2389
sS'potential'
p3905
I75
sS'vanessa'
p3906
I34
sS'background'
p3907
I350
sS'bolt'
p3908
I36
sS'errr'
p3909
I33
sS'attached'
p3910
I33
sS'vista'
p3911
I99
sS'babysitting'
p3912
I86
sS'mile'
p3913
I122
sS'milo'
p3914
I37
sS'milk'
p3915
I359
sS'amaze'
p3916
I27
sS'bloke'
p3917
I31
sS'earthquake'
p3918
I252
sS'massage'
p3919
I119
sS'pero'
p3920
I34
sS'peru'
p3921
I28
sS'sharing'
p3922
I341
sS'tweets'
p3923
I1623
sS'bein'
p3924
I84
sS'california'
p3925
I196
sS'dash'
p3926
I34
sS'advil'
p3927
I28
sS'theatre'
p3928
I93
sS'normal'
p3929
I370
sS'finishing'
p3930
I275
sS'gaga'
p3931
I157
sS'sayang'
p3932
I27
sS'everyday'
p3933
I290
sS'pas'
p3934
I43
sS'pat'
p3935
I77
sS'pay'
p3936
I575
sS'pad'
p3937
I51
sS'pal'
p3938
I68
sS'pam'
p3939
I32
sS'pan'
p3940
I42
sS'running'
p3941
I894
sS'gates'
p3942
I25
sS'disappointed'
p3943
I352
sS'laughing'
p3944
I291
sS'organizing'
p3945
I33
sS'aussie'
p3946
I105
sS'road'
p3947
I530
sS'quietly'
p3948
I26
sS"brother's"
p3949
I63
sS'keepin'
p3950
I26
sS'forget'
p3951
I738
sS'neighborhood'
p3952
I55
sS'further'
p3953
I83
sS'abc'
p3954
I54
sS'abs'
p3955
I33
sS'abt'
p3956
I224
sS'shark'
p3957
I34
sS'share'
p3958
I550
sS'sharp'
p3959
I43
sS'csi'
p3960
I67
sS'css'
p3961
I61
sS'frisbee'
p3962
I25
sS'thnx'
p3963
I209
sS'thnk'
p3964
I28
sS'hurting'
p3965
I218
sS'pregnant'
p3966
I71
sS'statement'
p3967
I55
sS'muscles'
p3968
I60
sS'youth'
p3969
I102
sS'4ward'
p3970
I31
sS'giant'
p3971
I120
sS'devils'
p3972
I26
sS'visiting'
p3973
I189
sS'headaches'
p3974
I75
sS'mikey'
p3975
I62
sS'meeting'
p3976
I880
sS'itself'
p3977
I151
sS'bin'
p3978
I68
sS'bio'
p3979
I155
sS'big'
p3980
I2609
sS'bid'
p3981
I39
sS'biz'
p3982
I90
sS'bit'
p3983
I2629
sS'google'
p3984
I543
sS'often'
p3985
I399
sS'ourselves'
p3986
I51
sS'scale'
p3987
I27
sS'amazin'
p3988
I30
sS'served'
p3989
I41
sS'(l)'
p3990
I82
sS'downhill'
p3991
I30
sS'clips'
p3992
I42
sS'min'
p3993
I319
sS'<'
p3994
I894
sS'warned'
p3995
I25
sS'waaa'
p3996
I52
sS'fixreplies'
p3997
I31
sS'loved'
p3998
I1150
sS'loves'
p3999
I907
sS'dallas'
p4000
I126
sS'kite'
p4001
I27
sS'portfolio'
p4002
I51
sS'calling'
p4003
I345
sS'dearest'
p4004
I27
sS'clearing'
p4005
I43
sS'plain'
p4006
I97
sS'helped'
p4007
I199
sS'injured'
p4008
I51
sS'clinic'
p4009
I41
sS'fyi'
p4010
I115
sS'inviting'
p4011
I25
sS'sofa'
p4012
I83
sS'soft'
p4013
I90
sS'stuffs'
p4014
I48
sS'stuffy'
p4015
I56
sS'host'
p4016
I122
sS'6am'
p4017
I175
sS'reminds'
p4018
I220
sS'editing'
p4019
I200
sS'dangerous'
p4020
I66
sS'thunderstorms'
p4021
I40
sS'8th'
p4022
I93
sS'sleep'
p4023
I6894
sS'changed'
p4024
I430
sS'changes'
p4025
I147
sS'forums'
p4026
I61
sS'tampa'
p4027
I50
sS'henry'
p4028
I36
sS'naman'
p4029
I57
sS'writing'
p4030
I877
sS'explode'
p4031
I48
sS'celebrating'
p4032
I177
sS'driving'
p4033
I678
sS'arizona'
p4034
I34
sS'free'
p4035
I2025
sS'isolated'
p4036
I29
sS'laughed'
p4037
I110
sS'rides'
p4038
I62
sS'earth'
p4039
I289
sS'uhhh'
p4040
I63
sS'dedication'
p4041
I42
sS'players'
p4042
I61
sS'bathroom'
p4043
I138
sS'confident'
p4044
I42
sS'canucks'
p4045
I107
sS'catch'
p4046
I843
sS'cracked'
p4047
I80
sS'fridays'
p4048
I109
sS'hearts'
p4049
I89
sS'advanced'
p4050
I34
sS'brekkie'
p4051
I26
sS'rounds'
p4052
I37
sS'viva'
p4053
I32
sS'artwork'
p4054
I34
sS'brother'
p4055
I718
sS'yall'
p4056
I275
sS'slower'
p4057
I43
sS'stressful'
p4058
I65
sS'cans'
p4059
I27
sS'stupidly'
p4060
I26
sS'ones'
p4061
I805
sS'delighted'
p4062
I26
sS'teachers'
p4063
I85
sS'11am'
p4064
I51
sS'motion'
p4065
I56
sS'view'
p4066
I279
sS'wide'
p4067
I231
sS'tornado'
p4068
I25
sS'multiply'
p4069
I48
sS'cuddles'
p4070
I40
sS'hack'
p4071
I47
sS'lighter'
p4072
I42
sS":'("
p4073
I245
sS":')"
p4074
I36
sS'ignored'
p4075
I45
sS'comp'
p4076
I169
sS'cities'
p4077
I44
sS'come'
p4078
I5503
sS'reaction'
p4079
I76
sS'howard'
p4080
I27
sS'peaceful'
p4081
I89
sS'10:30'
p4082
I41
sS'atleast'
p4083
I161
sS'energy'
p4084
I313
sS'5'
p4085
I1695
sS'booked'
p4086
I156
sS'calls'
p4087
I273
sS'opportunities'
p4088
I27
sS'choices'
p4089
I49
sS'will'
p4090
I12387
sS'shouldn'
p4091
I37
sS'relaxation'
p4092
I31
sS'shoulda'
p4093
I64
sS'suddenly'
p4094
I138
sS'prodigy'
p4095
I29
sS'pirates'
p4096
I41
sS'generation'
p4097
I45
sS'aghhh'
p4098
I26
sS'thread'
p4099
I67
sS'script'
p4100
I94
sS'dani'
p4101
I25
sS'dang'
p4102
I320
sS'dane'
p4103
I102
sS'cleaner'
p4104
I32
sS'gals'
p4105
I36
sS'needs'
p4106
I1176
sS'alike'
p4107
I48
sS'cleaned'
p4108
I161
sS'doggie'
p4109
I48
sS'believe'
p4110
I1670
sS'cartoons'
p4111
I54
sS'supporting'
p4112
I58
sS'cheerios'
p4113
I25
sS'finds'
p4114
I53
sS'earthquakes'
p4115
I53
sS'rio'
p4116
I31
sS'rid'
p4117
I188
sS'noodle'
p4118
I54
sS'analysis'
p4119
I40
sS'inspirational'
p4120
I46
sS'unlimited'
p4121
I67
sS'anne'
p4122
I45
sS'anna'
p4123
I73
sS'intense'
p4124
I71
sS'crank'
p4125
I41
sS'wished'
p4126
I80
sS'wishes'
p4127
I539
sS'enuf'
p4128
I30
sS'metro'
p4129
I81
sS'apple'
p4130
I420
sS'motor'
p4131
I29
sS'apply'
p4132
I82
sS"sun's"
p4133
I38
sS'porch'
p4134
I33
sS'practice'
p4135
I317
sS'remove'
p4136
I94
sS'accent'
p4137
I72
sS'remember'
p4138
I1191
sS'tommy'
p4139
I47
sS'centre'
p4140
I93
sS'workin'
p4141
I180
sS'dope'
p4142
I70
sS'words'
p4143
I689
sS'ghetto'
p4144
I29
sS'closer'
p4145
I189
sS'closed'
p4146
I333
sS'pants'
p4147
I244
sS'bbl'
p4148
I32
sS'bbc'
p4149
I106
sS'bby'
p4150
I41
sS'verizon'
p4151
I32
sS'gnight'
p4152
I64
sS'rocket'
p4153
I33
sS'rocked'
p4154
I142
sS'shabby'
p4155
I26
sS'em'
p4156
I650
sS'registration'
p4157
I37
sS'hanging'
p4158
I540
sS'errors'
p4159
I39
sS'designing'
p4160
I51
sS'wana'
p4161
I91
sS'want'
p4162
I8571
sS'travel'
p4163
I294
sS'effects'
p4164
I68
sS'self-'
p4165
I33
sS'disturbed'
p4166
I26
sS'hiya'
p4167
I108
sS'feeling'
p4168
I3447
sS'saying'
p4169
I756
sS'clicked'
p4170
I47
sS'plate'
p4171
I73
sS'nicely'
p4172
I118
sS'lots'
p4173
I1311
sS'naww'
p4174
I31
sS'lookin'
p4175
I225
sS'fri'
p4176
I127
sS'frm'
p4177
I117
sS'.'
p4178
I180295
sS'much'
p4179
I8464
sS'fry'
p4180
I71
sS'spit'
p4181
I30
sS'spin'
p4182
I57
sS'hong'
p4183
I33
sS'reruns'
p4184
I34
sS'hah'
p4185
I85
sS'hai'
p4186
I56
sS'ham'
p4187
I63
sS'had'
p4188
I11253
sS'hay'
p4189
I135
sS'haz'
p4190
I53
sS'has'
p4191
I7779
sS'hat'
p4192
I203
sS'hav'
p4193
I208
sS'bottom'
p4194
I154
sS'shoots'
p4195
I27
sS'smelling'
p4196
I29
sS'freelance'
p4197
I25
sS'celebrated'
p4198
I33
sS'address'
p4199
I142
sS'queue'
p4200
I54
sS'didn'
p4201
I542
sS'entering'
p4202
I27
sS'seriously'
p4203
I933
sS'anoop'
p4204
I40
sS'grandma'
p4205
I195
sS'wandering'
p4206
I36
sS'zoe'
p4207
I37
sS'zoo'
p4208
I150
sS'ooohhh'
p4209
I38
sS'pimp'
p4210
I36
sS'footie'
p4211
I25
sS'west'
p4212
I236
sS'photos'
p4213
I612
sS'technology'
p4214
I129
sS'sum1'
p4215
I35
sS'yesss'
p4216
I190
sS'thailand'
p4217
I43
sS'prepared'
p4218
I96
sS'bubble'
p4219
I110
sS'yayy'
p4220
I109
sS'rage'
p4221
I29
sS'dirty'
p4222
I181
sS'watches'
p4223
I32
sS'watched'
p4224
I1368
sS'friggin'
p4225
I66
sS'beware'
p4226
I41
sS'helps'
p4227
I306
sS'knocked'
p4228
I83
sS'installed'
p4229
I135
sS'paper'
p4230
I742
sS'scott'
p4231
I101
sS'3hrs'
p4232
I30
sS'essays'
p4233
I80
sS'remedy'
p4234
I34
sS'exercise'
p4235
I151
sS'insane'
p4236
I133
sS'retarded'
p4237
I81
sS'9:30'
p4238
I43
sS'38'
p4239
I33
sS'awake'
p4240
I1310
sS'budget'
p4241
I90
sS'36'
p4242
I48
sS'dozen'
p4243
I41
sS'3.'
p4244
I122
sS'nickname'
p4245
I45
sS'parents'
p4246
I560
sS'bounce'
p4247
I34
sS'and/or'
p4248
I31
sS'into'
p4249
I2738
sS'katie'
p4250
I139
sS'atlantis'
p4251
I29
sS'duper'
p4252
I30
sS'turkish'
p4253
I26
sS'sweaty'
p4254
I38
sS'confidence'
p4255
I41
sS'rick'
p4256
I55
sS'customer'
p4257
I103
sS'intelligent'
p4258
I44
sS'prosper'
p4259
I26
sS'snake'
p4260
I40
sS'witness'
p4261
I25
sS"'"
p4262
I5946
sS'greedy'
p4263
I31
sS'stomach'
p4264
I490
sS'tonight'
p4265
I5296
sS'tape'
p4266
I88
sS'riding'
p4267
I176
sS'sinus'
p4268
I66
sS'taxes'
p4269
I36
sS'stuff'
p4270
I2431
sS'frame'
p4271
I51
sS'sales'
p4272
I135
sS'podcasts'
p4273
I39
sS'hahaha'
p4274
I437
sS'uggh'
p4275
I25
sS'tattoo'
p4276
I163
sS'crack'
p4277
I168
sS'swimming'
p4278
I221
sS'letters'
p4279
I71
sS'nonetheless'
p4280
I43
sS'yeaaa'
p4281
I34
sS'stinks'
p4282
I73
sS'stinky'
p4283
I25
sS'neighbours'
p4284
I89
sS'machines'
p4285
I36
sS'anddd'
p4286
I28
sS'sweater'
p4287
I37
sS'err'
p4288
I78
sS'ers'
p4289
I27
sS'era'
p4290
I47
sS'elbow'
p4291
I56
sS'erm'
p4292
I56
sS'very'
p4293
I6453
sS'nawww'
p4294
I27
sS'reasonable'
p4295
I25
sS'feeds'
p4296
I50
sS'daniel'
p4297
I97
sS'blackout'
p4298
I37
sS'dogs'
p4299
I396
sS'guilt'
p4300
I37
sS'aunt'
p4301
I144
sS'reserve'
p4302
I28
sS'gears'
p4303
I27
sS'tone'
p4304
I50
sS'tons'
p4305
I199
sS'tony'
p4306
I101
sS'dizzy'
p4307
I63
sS'humble'
p4308
I37
sS'client'
p4309
I219
sS'thanks'
p4310
I12048
sS'test'
p4311
I890
sS"o'clock"
p4312
I31
sS'songs'
p4313
I786
sS'battle'
p4314
I110
sS'touches'
p4315
I36
sS'gue'
p4316
I26
sS'gud'
p4317
I92
sS'gun'
p4318
I72
sS'gut'
p4319
I30
sS'fuuuck'
p4320
I30
sS'guy'
p4321
I1290
sS'shares'
p4322
I56
sS'shared'
p4323
I66
sS'sending'
p4324
I363
sS'chip'
p4325
I130
sS'chin'
p4326
I55
sS'discussion'
p4327
I63
sS'brain'
p4328
I359
sS'tablets'
p4329
I32
sS'drop'
p4330
I282
sS'yeah'
p4331
I5210
sS'year'
p4332
I2282
sS'yeay'
p4333
I26
sS'mbp'
p4334
I25
sS'flipping'
p4335
I30
sS'pittsburgh'
p4336
I29
sS'brains'
p4337
I47
sS'apples'
p4338
I37
sS'7:30'
p4339
I30
sS'burst'
p4340
I45
sS'?!?'
p4341
I25
sS'hurts'
p4342
I1431
sS'hve'
p4343
I33
sS'tropical'
p4344
I32
sS'taking'
p4345
I1322
sS'itouch'
p4346
I51
sS'role'
p4347
I118
sS'fortune'
p4348
I47
sS'roll'
p4349
I298
sS'backup'
p4350
I80
sS'housework'
p4351
I98
sS'poor'
p4352
I1601
sS'poop'
p4353
I91
sS'pooh'
p4354
I34
sS'overseas'
p4355
I28
sS'decide'
p4356
I208
sS'ass'
p4357
I878
sS'streets'
p4358
I69
sS'toilet'
p4359
I79
sS'dissertation'
p4360
I52
sS'inspired'
p4361
I161
sS'ask'
p4362
I944
sS'downloading'
p4363
I208
sS'cheering'
p4364
I72
sS'anytime'
p4365
I268
sS'trapped'
p4366
I44
sS'tivo'
p4367
I32
sS'shirts'
p4368
I113
sS'wasnt'
p4369
I274
sS'jamie'
p4370
I79
sS'stalker'
p4371
I66
sS'enuff'
p4372
I29
sS'grant'
p4373
I45
sS'accomplished'
p4374
I74
sS'grand'
p4375
I189
sS'fatty'
p4376
I30
sS'showing'
p4377
I278
sS'ordered'
p4378
I224
sS'application'
p4379
I109
sS'department'
p4380
I36
sS'giggles'
p4381
I37
sS'tweeter'
p4382
I84
sS'tweeted'
p4383
I252
sS'assuming'
p4384
I38
sS'telling'
p4385
I298
sS'jump'
p4386
I193
sS'twitters'
p4387
I333
sS'vampire'
p4388
I64
sS'twitter-'
p4389
I43
sS'vacay'
p4390
I27
sS'manage'
p4391
I150
sS'meee'
p4392
I242
sS'recession'
p4393
I55
sS'meet'
p4394
I1360
sS'pulling'
p4395
I89
sS'favourites'
p4396
I31
sS'university'
p4397
I118
sS'slide'
p4398
I47
sS'|'
p4399
I230
sS'switzerland'
p4400
I31
sS'blahhh'
p4401
I47
sS'times'
p4402
I1778
sS'bitch'
p4403
I337
sS'wrapped'
p4404
I41
sS'pulled'
p4405
I207
sS'nga'
p4406
I30
sS'brighten'
p4407
I30
sS'brighter'
p4408
I30
sS'skating'
p4409
I49
sS'faves'
p4410
I47
sS'bulaga'
p4411
I31
sS'cocoa'
p4412
I41
sS'pointless'
p4413
I57
sS'baaad'
p4414
I32
sS'kissed'
p4415
I25
sS'backstage'
p4416
I25
sS'aug'
p4417
I29
sS'aus'
p4418
I86
sS'w/the'
p4419
I30
sS'hairdresser'
p4420
I27
sS'mee'
p4421
I110
sS'meg'
p4422
I41
sS'mel'
p4423
I49
sS'men'
p4424
I417
sS'met'
p4425
I535
sS'movies'
p4426
I795
sS'third'
p4427
I207
sS'looove'
p4428
I152
sS'position'
p4429
I75
sS'combination'
p4430
I70
sS'trading'
p4431
I29
sS'u.s.'
p4432
I31
sS'gahhh'
p4433
I50
sS'floors'
p4434
I32
sS'mario'
p4435
I60
sS'marie'
p4436
I33
sS'maria'
p4437
I57
sS'zealand'
p4438
I64
sS'weekends'
p4439
I304
sS'testing'
p4440
I243
sS'zack'
p4441
I38
sS'puts'
p4442
I80
sS'entered'
p4443
I43
sS'ugly'
p4444
I216
sS'programs'
p4445
I34
sS'punishment'
p4446
I29
sS'dean'
p4447
I67
sS'deal'
p4448
I369
sS'dear'
p4449
I918
sS'microwave'
p4450
I32
sS'tennis'
p4451
I169
sS'editor'
p4452
I43
sS'landing'
p4453
I39
sS'awhile'
p4454
I187
sS'father'
p4455
I125
sS'talked'
p4456
I247
sS'processing'
p4457
I26
sS'install'
p4458
I182
sS'teenage'
p4459
I28
sS'fuck'
p4460
I948
sS'sample'
p4461
I29
sS'snl'
p4462
I214
sS'jess'
p4463
I108
sS'police'
p4464
I106
sS'policy'
p4465
I25
sS'lunch'
p4466
I1816
sS'badly'
p4467
I254
sS'carnival'
p4468
I46
sS'first'
p4469
I4068
sS'speaking'
p4470
I172
sS'shocked'
p4471
I79
sS'200'
p4472
I154
sS'wooow'
p4473
I36
sS'treasure'
p4474
I30
sS'thanksss'
p4475
I28
sS'miles'
p4476
I337
sS'miley'
p4477
I422
sS'label'
p4478
I41
sS'tour'
p4479
I722
sS'hardcore'
p4480
I92
sS'pissing'
p4481
I47
sS'flavor'
p4482
I43
sS'snoring'
p4483
I61
sS'required'
p4484
I68
sS'u'
p4485
I9600
sS'gf'
p4486
I127
sS'straighten'
p4487
I27
sS'zero'
p4488
I89
sS'wrecked'
p4489
I32
sS'newspaper'
p4490
I42
sS'situation'
p4491
I136
sS'mentions'
p4492
I29
sS'recall'
p4493
I27
sS'remain'
p4494
I51
sS'stil'
p4495
I39
sS'comfort'
p4496
I84
sS'needa'
p4497
I40
sS'hatton'
p4498
I99
sS'tiffany'
p4499
I30
sS'portland'
p4500
I70
sS'singapore'
p4501
I113
sS"they'll"
p4502
I131
sS'too'
p4503
I15117
sS'toe'
p4504
I126
sS'nothin'
p4505
I119
sS'chars'
p4506
I28
sS'chart'
p4507
I40
sS'charm'
p4508
I52
sS'restaurants'
p4509
I26
sS'foreign'
p4510
I32
sS'constant'
p4511
I41
sS'cure'
p4512
I124
sS'curl'
p4513
I52
sS'utterly'
p4514
I40
sS'groceries'
p4515
I33
sS'havent'
p4516
I518
sS'skool'
p4517
I135
sS'maui'
p4518
I28
sS'closing'
p4519
I108
sS'holds'
p4520
I51
sS'furious'
p4521
I48
sS"twitter's"
p4522
I38
sS"ya'll"
p4523
I113
sS'sexual'
p4524
I28
sS'recipes'
p4525
I41
sS'whooo'
p4526
I66
sS'whoop'
p4527
I60
sS'reached'
p4528
I110
sS'braces'
p4529
I60
sS'have'
p4530
I33026
sS'payment'
p4531
I34
sS'disease'
p4532
I57
sS'knowledge'
p4533
I72
sS'joke'
p4534
I279
sS'equal'
p4535
I36
sS"it's"
p4536
I10521
sS"it'd"
p4537
I83
sS'hubs'
p4538
I41
sS'stores'
p4539
I88
sS'dubai'
p4540
I54
sS'puppy'
p4541
I339
sS'success'
p4542
I202
sS'chica'
p4543
I31
sS'chick'
p4544
I156
sS'recommendation'
p4545
I111
sS'dyed'
p4546
I31
sS'dressed'
p4547
I189
sS'dresses'
p4548
I69
sS'reboot'
p4549
I38
sS'appetite'
p4550
I26
sS'ttyl'
p4551
I83
sS'leaves'
p4552
I171
sS'ceremony'
p4553
I54
sS'description'
p4554
I39
sS'tidying'
p4555
I50
sS'newly'
p4556
I27
sS'dayy'
p4557
I61
sS'days'
p4558
I4231
sS'outfits'
p4559
I27
sS'quicker'
p4560
I26
sS'sarcasm'
p4561
I41
sS'bridge'
p4562
I79
sS'lunchtime'
p4563
I61
sS'seminar'
p4564
I37
sS'thoroughly'
p4565
I47
sS'derek'
p4566
I43
sS'sumthin'
p4567
I28
sS'situations'
p4568
I28
sS'finger'
p4569
I193
sS'kitties'
p4570
I46
sS'n'
p4571
I1725
sS'shortly'
p4572
I100
sS'grades'
p4573
I46
sS'breaks'
p4574
I125
sS'any1'
p4575
I54
sS'52'
p4576
I32
sS'attacks'
p4577
I27
sS'5!'
p4578
I25
sS'duke'
p4579
I33
sS'aha'
p4580
I46
sS'ahh'
p4581
I738
sS'sometime'
p4582
I271
sS'timeee'
p4583
I28
sS'papers'
p4584
I175
sS'celebs'
p4585
I78
sS'knackered'
p4586
I64
sS'trend'
p4587
I61
sS'trent'
p4588
I34
sS'yippee'
p4589
I48
sS'irritated'
p4590
I33
sS'witch'
p4591
I28
sS'prep'
p4592
I69
sS'casey'
p4593
I40
sS'cases'
p4594
I59
sS'pre-'
p4595
I35
sS'fourth'
p4596
I60
sS'platform'
p4597
I42
sS'hanks'
p4598
I26
sS'evolution'
p4599
I31
sS'replied'
p4600
I152
sS'tks'
p4601
I28
sS'believing'
p4602
I29
sS'jokes'
p4603
I133
sS'roots'
p4604
I40
sS'wouldve'
p4605
I28
sS'quiet'
p4606
I411
sS'period'
p4607
I136
sS'turkey'
p4608
I79
sS'lucky'
p4609
I1036
sS'hopeful'
p4610
I35
sS'towel'
p4611
I41
sS'tower'
p4612
I54
sS'rising'
p4613
I38
sS'ehh'
p4614
I43
sS'costco'
p4615
I30
sS';).'
p4616
I29
sS'decisions'
p4617
I59
sS'wassup'
p4618
I49
sS'treating'
p4619
I41
sS'flick'
p4620
I62
sS'sue'
p4621
I41
sS'sub'
p4622
I55
sS'sun'
p4623
I2082
sS'sum'
p4624
I233
sS'sup'
p4625
I59
sS'sux'
p4626
I119
sS'horses'
p4627
I69
sS'antibiotics'
p4628
I34
sS"who'll"
p4629
I31
sS'awesomeee'
p4630
I26
sS'pleaseee'
p4631
I73
sS'adventure'
p4632
I106
sS'soccer'
p4633
I254
sS'somebody'
p4634
I262
sS'instructions'
p4635
I31
sS'hill'
p4636
I183
sS'story'
p4637
I675
sS'leading'
p4638
I36
sS'comfy'
p4639
I114
sS'storm'
p4640
I201
sS"didn't."
p4641
I31
sS'store'
p4642
I674
sS'luckily'
p4643
I114
sS'king'
p4644
I254
sS'kind'
p4645
I1204
sS"mom's"
p4646
I286
sS'imo'
p4647
I56
sS'wrote'
p4648
I303
sS'solo'
p4649
I96
sS'sold'
p4650
I348
sS'homework'
p4651
I1158
sS'refuses'
p4652
I28
sS'impressed'
p4653
I187
sS'rained'
p4654
I115
sS'rainbow'
p4655
I82
sS'bonding'
p4656
I37
sS'gokey'
p4657
I94
sS'languages'
p4658
I29
sS'include'
p4659
I83
sS'wrestling'
p4660
I30
sS'reunion'
p4661
I89
sS'explore'
p4662
I31
sS'egypt'
p4663
I41
sS'from'
p4664
I13385
sS'frog'
p4665
I38
sS'whilst'
p4666
I159
sS'glee'
p4667
I31
sS"night's"
p4668
I104
sS'edit'
p4669
I105
sS'chaos'
p4670
I38
sS'organic'
p4671
I49
sS'g'
p4672
I111
sS'twittering'
p4673
I429
sS'30pm'
p4674
I32
sS'chapters'
p4675
I38
sS'joy'
p4676
I335
sS'job'
p4677
I1876
sS'joe'
p4678
I295
sS'jog'
p4679
I52
sS'jon'
p4680
I195
sS'april'
p4681
I255
sS'decent'
p4682
I201
sS'stunning'
p4683
I89
sS'disagree'
p4684
I44
sS'usage'
p4685
I31
sS'pasta'
p4686
I123
sS'paste'
p4687
I46
sS'rare'
p4688
I87
sS'nintendo'
p4689
I39
sS'volume'
p4690
I49
sS'kinds'
p4691
I73
sS'kinda'
p4692
I1319
sS'explained'
p4693
I34
sS'spoke'
p4694
I100
sS'successful'
p4695
I121
sS'household'
p4696
I32
sS'really'
p4697
I10637
sS'complaining'
p4698
I75
sS'win7'
p4699
I28
sS'wins'
p4700
I140
sS'wink'
p4701
I51
sS'keeps'
p4702
I428
sS'wing'
p4703
I32
sS'wind'
p4704
I233
sS'wine'
p4705
I508
sS'__'
p4706
I52
sS'silver'
p4707
I83
sS'financial'
p4708
I45
sS'flooded'
p4709
I47
sS'clothes'
p4710
I434
sS'lego'
p4711
I31
sS'legs'
p4712
I294
sS'responsible'
p4713
I47
sS'professor'
p4714
I32
sS'bomb'
p4715
I113
sS'tequila'
p4716
I49
sS'theme'
p4717
I188
sS'sista'
p4718
I28
sS'pirate'
p4719
I54
sS'tutorials'
p4720
I29
sS'chile'
p4721
I41
sS'child'
p4722
I201
sS'chili'
p4723
I36
sS'chill'
p4724
I340
sS'birth'
p4725
I63
sS'trampoline'
p4726
I34
sS'joomla'
p4727
I34
sS'happy'
p4728
I9046
sS'tournament'
p4729
I70
sS'accounting'
p4730
I44
sS'ottawa'
p4731
I25
sS'behalf'
p4732
I27
sS'dats'
p4733
I32
sS'date'
p4734
I594
sS'data'
p4735
I121
sS'bowling'
p4736
I157
sS'giddy'
p4737
I34
sS'million'
p4738
I218
sS'possibility'
p4739
I26
sS'sock'
p4740
I34
sS'vote'
p4741
I377
sS'take'
p4742
I3921
sS'carolina'
p4743
I60
sS'xmas'
p4744
I41
sS'1:30'
p4745
I28
sS'expression'
p4746
I31
sS'ants'
p4747
I37
sS'antm'
p4748
I29
sS'teddy'
p4749
I46
sS'breath'
p4750
I144
sS'chan'
p4751
I25
sS'bros'
p4752
I52
sS'toothache'
p4753
I55
sS'unemployed'
p4754
I36
sS'clay'
p4755
I36
sS'sack'
p4756
I62
sS'gilmore'
p4757
I31
sS'ack'
p4758
I55
sS'act'
p4759
I160
sS'partied'
p4760
I26
sS'parties'
p4761
I114
sS'buying'
p4762
I301
sS'taught'
p4763
I59
sS'ohh'
p4764
I388
sS'shaun'
p4765
I84
sS'cpu'
p4766
I26
sS'dressing'
p4767
I43
sS'`'
p4768
I41
sS'youuu'
p4769
I195
sS'beautiful'
p4770
I2299
sS'neglected'
p4771
I37
sS'accept'
p4772
I102
sS'autumn'
p4773
I47
sS'upto'
p4774
I31
sS'backyard'
p4775
I67
sS'darling'
p4776
I143
sS'obama'
p4777
I108
sS'fights'
p4778
I33
sS'cover'
p4779
I306
sS'matter'
p4780
I409
sS'survey'
p4781
I39
sS'victims'
p4782
I28
sS'anything'
p4783
I1867
sS'pastor'
p4784
I51
sS'walked'
p4785
I204
sS'results'
p4786
I238
sS'send'
p4787
I1244
sS'clients'
p4788
I105
sS'_'
p4789
I27
sS'high'
p4790
I810
sS'blocks'
p4791
I43
sS'stop'
p4792
I1808
sS'wallpaper'
p4793
I41
sS'nancy'
p4794
I27
sS'hobby'
p4795
I34
sS'kiss'
p4796
I256
sS'spill'
p4797
I28
sS'owner'
p4798
I71
sS'reference'
p4799
I72
sS'torrent'
p4800
I29
sS'clearly'
p4801
I146
sS'soak'
p4802
I31
sS'kittens'
p4803
I46
sS'soap'
p4804
I62
sS'destroy'
p4805
I43
sS'hope'
p4806
I8607
sS'heartburn'
p4807
I26
sS'edition'
p4808
I79
sS'ch'
p4809
I76
sS'co'
p4810
I104
sS'cn'
p4811
I31
sS'cc'
p4812
I38
sS'ca'
p4813
I130
sS'ce'
p4814
I32
sS'cd'
p4815
I362
sS'cs'
p4816
I30
sS'cu'
p4817
I42
sS'ct'
p4818
I56
sS'c.'
p4819
I26
sS"c'"
p4820
I49
sS'c?'
p4821
I38
sS'laser'
p4822
I31
sS'lush'
p4823
I47
sS'romance'
p4824
I37
sS'ball'
p4825
I240
sS'bali'
p4826
I38
sS'bald'
p4827
I36
sS'colour'
p4828
I120
sS'moments'
p4829
I109
sS'years'
p4830
I1315
sS'realize'
p4831
I213
sS'crisp'
p4832
I33
sS'\xc2\xb4s'
p4833
I48
sS'gained'
p4834
I53
sS'glasses'
p4835
I228
sS'official'
p4836
I240
sS'shannon'
p4837
I35
sS'francisco'
p4838
I42
sS'blanket'
p4839
I75
sS'upload'
p4840
I406
sS'celebration'
p4841
I73
sS'employees'
p4842
I29
sS'chilly'
p4843
I102
sS'length'
p4844
I26
sS'if'
p4845
I10604
sS'chills'
p4846
I26
sS'enjoyin'
p4847
I31
sS'strangers'
p4848
I37
sS"people's"
p4849
I54
sS'festival'
p4850
I227
sS'families'
p4851
I30
sS'audrey'
p4852
I26
sS'raid'
p4853
I30
sS'rain'
p4854
I2196
sS'kept'
p4855
I260
sS'spread'
p4856
I150
sS'sends'
p4857
I44
sS'theirs'
p4858
I36
sS'reset'
p4859
I40
sS'responding'
p4860
I35
sS'together'
p4861
I876
sS'zone'
p4862
I99
sS'flash'
p4863
I148
sS'margarita'
p4864
I26
sS'trial'
p4865
I48
sS'pony'
p4866
I33
sS'jan'
p4867
I55
sS'live'
p4868
I2301
sS'candles'
p4869
I34
sS'cold'
p4870
I2044
sS'half'
p4871
I1260
sS'hall'
p4872
I117
sS'halo'
p4873
I74
sS'goose'
p4874
I32
sS'space'
p4875
I293
sS'sheep'
p4876
I54
sS'sheet'
p4877
I38
sS'silent'
p4878
I64
sS'universe'
p4879
I89
sS'correction'
p4880
I53
sS'embrace'
p4881
I27
sS'alrighty'
p4882
I33
sS'tradition'
p4883
I25
sS'touch'
p4884
I398
sS'greatly'
p4885
I34
sS'heater'
p4886
I37
sS'#3hotwords'
p4887
I29
sS'comics'
p4888
I53
sS'organised'
p4889
I27
sS'mp3'
p4890
I90
sS'1pm'
p4891
I42
sS'skin'
p4892
I155
sS'answers'
p4893
I82
sS'injury'
p4894
I44
sS'gasp'
p4895
I26
sS'overnight'
p4896
I69
sS'chicks'
p4897
I60
sS'desperately'
p4898
I51
sS'since'
p4899
I2071
sS'pun'
p4900
I35
sS'pug'
p4901
I30
sS'pub'
p4902
I184
sS'put'
p4903
I1925
sS'pup'
p4904
I62
sS'woohooo'
p4905
I25
sS'juicy'
p4906
I30
sS'juice'
p4907
I234
sS'booze'
p4908
I57
sS'pretty'
p4909
I3136
sS'gloves'
p4910
I35
sS'horrid'
p4911
I44
sS'liked'
p4912
I647
sS'wen'
p4913
I114
sS'likes'
p4914
I353
sS'likey'
p4915
I46
sS'anthony'
p4916
I49
sS'terminator'
p4917
I117
sS'used'
p4918
I1254
sS'temporary'
p4919
I37
sS'uses'
p4920
I80
sS'user'
p4921
I134
sS'grind'
p4922
I88
sS'tiiired'
p4923
I26
sS'grins'
p4924
I28
sS'havin'
p4925
I140
sS'emma'
p4926
I85
sS'7.'
p4927
I67
sS'laker'
p4928
I37
sS'78'
p4929
I29
sS'russian'
p4930
I66
sS'doesn'
p4931
I246
sS'gw'
p4932
I28
sS'gt'
p4933
I57
sS'gp'
p4934
I66
sS'gg'
p4935
I76
sS'gd'
p4936
I111
sS'gb'
p4937
I28
sS'ga'
p4938
I76
sS'go'
p4939
I15966
sS'gm'
p4940
I54
sS'gi'
p4941
I51
sS'g1'
p4942
I46
sS"g'"
p4943
I199
sS'download'
p4944
I504
sS'espresso'
p4945
I48
sS'cloud'
p4946
I105
sS'lifestyle'
p4947
I35
sS'i"m'
p4948
I27
sS'poetry'
p4949
I44
sS'claire'
p4950
I30
sS'pine'
p4951
I28
sS'auto'
p4952
I82
sS'pins'
p4953
I26
sS'attack'
p4954
I140
sS'2-3'
p4955
I31
sS'2-0'
p4956
I29
sS'ben'
p4957
I179
sS'bed'
p4958
I5685
sS'bee'
p4959
I96
sS'bet'
p4960
I648
sS'anyway'
p4961
I1056
sS'parked'
p4962
I34
sS'offense'
p4963
I33
sS'horribly'
p4964
I47
sS'written'
p4965
I171
sS'horrible'
p4966
I545
sS'username'
p4967
I100
sS'brunch'
p4968
I212
sS'owns'
p4969
I26
sS'compared'
p4970
I78
sS'touching'
p4971
I46
sS'soulja'
p4972
I30
sS'sonic'
p4973
I53
sS'fate'
p4974
I43
sS'cleveland'
p4975
I50
sS'choked'
p4976
I25
sS'limit'
p4977
I125
sS'ups'
p4978
I109
sS'upp'
p4979
I38
sS'9pm'
p4980
I53
sS'drew'
p4981
I96
sS'nanny'
p4982
I41
sS'covers'
p4983
I59
sS'piercing'
p4984
I43
sS'rights'
p4985
I48
sS'give'
p4986
I2031
sS'adobe'
p4987
I52
sS'grease'
p4988
I59
sS'logging'
p4989
I31
sS'loud'
p4990
I268
sS'stewart'
p4991
I38
sS'unfollowed'
p4992
I46
sS'hook'
p4993
I112
sS'hood'
p4994
I80
sS'folder'
p4995
I38
sS'venture'
p4996
I29
sS'were'
p4997
I3902
sS'jordin'
p4998
I31
sS'sunshine'
p4999
I734
sS'facts'
p5000
I39
sS'nevermind'
p5001
I69
sS'comcast'
p5002
I36
sS'fireworks'
p5003
I59
sS'daddy'
p5004
I287
sS'sticks'
p5005
I49
sS'sticky'
p5006
I47
sS'adelaide'
p5007
I36
sS'dies'
p5008
I90
sS'diet'
p5009
I226
sS'died'
p5010
I675
sS'skip'
p5011
I126
sS'answered'
p5012
I75
sS'granny'
p5013
I46
sS'string'
p5014
I43
sS'accidentally'
p5015
I114
sS'pink'
p5016
I379
sS'ping'
p5017
I41
sS'till'
p5018
I1712
sS'sunday'
p5019
I2867
sS'tila'
p5020
I26
sS'pint'
p5021
I47
sS'guys'
p5022
I3260
sS'smoothie'
p5023
I53
sS'texas'
p5024
I220
sS'sooner'
p5025
I107
sS'vinyl'
p5026
I32
sS'language'
p5027
I147
sS'gotta'
p5028
I2101
sS'baaack'
p5029
I26
sS'checks'
p5030
I28
sS'according'
p5031
I117
sS'>_<'
p5032
I31
sS'disconnected'
p5033
I26
sS'coffee'
p5034
I2003
sS'roommate'
p5035
I71
sS'blankets'
p5036
I26
sS'gross'
p5037
I166
sS'awsome'
p5038
I149
sS'broken'
p5039
I596
sS'tease'
p5040
I45
sS'mornings'
p5041
I196
sS'strawberry'
p5042
I136
sS'suitcase'
p5043
I30
sS'lifetime'
p5044
I45
sS'obsessed'
p5045
I136
sS'students'
p5046
I144
sS'remote'
p5047
I72
sS'liam'
p5048
I25
sS'imma'
p5049
I179
sS'search'
p5050
I318
sS'non-'
p5051
I64
sS'none'
p5052
I355
sS'compare'
p5053
I50
sS'socal'
p5054
I28
sS'3hotwords'
p5055
I60
sS'charms'
p5056
I25
sS'coat'
p5057
I78
sS'dough'
p5058
I40
sS'cept'
p5059
I37
sS'k.'
p5060
I33
sS'k?'
p5061
I37
sS'kc'
p5062
I33
sS'ka'
p5063
I68
sS'ke'
p5064
I47
sS'kk'
p5065
I42
sS'ko'
p5066
I138
sS'km'
p5067
I39
sS'kl'
p5068
I32
sS'ky'
p5069
I25
sS'blogging'
p5070
I117
sS'throughout'
p5071
I38
sS'panera'
p5072
I35
sS'creativity'
p5073
I43
sS'kathy'
p5074
I35
sS'understand'
p5075
I624
sS'bill'
p5076
I227
sS'sandals'
p5077
I31
sS'shouting'
p5078
I34
sS'excited'
p5079
I2257
sS'integration'
p5080
I28
sS'bruce'
p5081
I43
sS'amused'
p5082
I56
sS'kickin'
p5083
I40
sS'knight'
p5084
I114
sS'omgosh'
p5085
I35
sS'rep'
p5086
I35
sS'rev'
p5087
I28
sS"don't."
p5088
I56
sS'red'
p5089
I843
sS're-'
p5090
I96
sS'slack'
p5091
I30
sS'shampoo'
p5092
I36
sS'necklace'
p5093
I69
sS'eight'
p5094
I62
sS'timing'
p5095
I82
sS'2pm'
p5096
I68
sS'laugh'
p5097
I601
sS'leaked'
p5098
I36
sS'seats'
p5099
I100
sS'bench'
p5100
I25
sS'est'
p5101
I49
sS'esp'
p5102
I116
sS'grrr'
p5103
I393
sS'snapped'
p5104
I32
sS'bills'
p5105
I102
sS'davids'
p5106
I28
sS'virtual'
p5107
I88
sS'tweet'
p5108
I2784
sS'pride'
p5109
I108
sS'every'
p5110
I1581
sS'weddings'
p5111
I28
sS'disney'
p5112
I249
sS'path'
p5113
I42
sS'expectations'
p5114
I40
sS'chuck'
p5115
I243
sS'victory'
p5116
I61
sS'signing'
p5117
I156
sS'wheee'
p5118
I27
sS'\xc3\xa9'
p5119
I114
sS'tooo'
p5120
I324
sS'tool'
p5121
I100
sS'took'
p5122
I1256
sS'fashion'
p5123
I190
sS'geek'
p5124
I165
sS'improve'
p5125
I72
sS'"a'
p5126
I69
sS'"i'
p5127
I293
sS'wound'
p5128
I28
sS'several'
p5129
I154
sS'"!'
p5130
I87
sS'",'
p5131
I164
sS'".'
p5132
I412
sS'"?'
p5133
I111
sS'apart'
p5134
I234
sS'ditto'
p5135
I66
sS'ick'
p5136
I35
sS'ich'
p5137
I37
sS'ice'
p5138
I718
sS'christmas'
p5139
I96
sS'ict'
p5140
I60
sS'sept'
p5141
I35
sS'froze'
p5142
I30
sS'head'
p5143
I1982
sS'heal'
p5144
I40
sS'heat'
p5145
I253
sS'hear'
p5146
I2318
sS'born'
p5147
I186
sS'hassle'
p5148
I42
sS'bullet'
p5149
I26
sS'chocolate'
p5150
I796
sS'2hrs'
p5151
I36
sS'worship'
p5152
I69
sS'realise'
p5153
I123
sS'acct'
p5154
I35
sS'millions'
p5155
I47
sS'hug'
p5156
I456
sS'hub'
p5157
I32
sS'hum'
p5158
I41
sS'hun'
p5159
I452
sS'huh'
p5160
I421
sS'hut'
p5161
I49
sS'considered'
p5162
I59
sS"80's"
p5163
I53
sS'vettel'
p5164
I30
sS'crime'
p5165
I48
sS'freaking'
p5166
I358
sS'fails'
p5167
I61
sS'color'
p5168
I201
sS'pole'
p5169
I34
sS'poll'
p5170
I34
sS'swift'
p5171
I146
sS'announcement'
p5172
I40
sS'wbu'
p5173
I26
sS"o'"
p5174
I79
sS'o2'
p5175
I55
sS'update'
p5176
I853
sS'oo'
p5177
I94
sS'om'
p5178
I40
sS'ok'
p5179
I3795
sS'oj'
p5180
I25
sS'oi'
p5181
I51
sS'oh'
p5182
I8919
sS'of'
p5183
I41874
sS'od'
p5184
I30
sS'oc'
p5185
I43
sS'oz'
p5186
I90
sS'oy'
p5187
I29
sS'ox'
p5188
I28
sS'ow'
p5189
I110
sS'ot'
p5190
I59
sS'os'
p5191
I105
sS'op'
p5192
I51
sS'communication'
p5193
I42
sS'applying'
p5194
I41
sS'odds'
p5195
I34
sS'program'
p5196
I158
sS'presentation'
p5197
I225
sS'woman'
p5198
I354
sS'design'
p5199
I376
sS'deeply'
p5200
I33
sS'guns'
p5201
I47
sS'sticking'
p5202
I50
sS'thankfully'
p5203
I95
sS'texts'
p5204
I120
sS'embarrassing'
p5205
I43
sS'logan'
p5206
I31
sS'rice'
p5207
I172
sS'rails'
p5208
I33
sS'outstanding'
p5209
I27
sS'huhu'
p5210
I51
sS'melody'
p5211
I28
sS'penalty'
p5212
I25
sS'activity'
p5213
I38
sS'watchin'
p5214
I346
sS'license'
p5215
I105
sS'brick'
p5216
I34
sS'arrives'
p5217
I61
sS'arrived'
p5218
I313
sS'lower'
p5219
I79
sS'k,'
p5220
I27
sS'fucking'
p5221
I778
sS'streaming'
p5222
I59
sS'meds'
p5223
I135
sS'mountains'
p5224
I63
sS'stalking'
p5225
I69
sS'lemon'
p5226
I106
sS'income'
p5227
I27
sS'stable'
p5228
I31
sS'drinking'
p5229
I733
sS'eeek'
p5230
I53
sS'cozy'
p5231
I52
sS'reds'
p5232
I25
sS'redo'
p5233
I26
sS'something'
p5234
I3300
sS'summers'
p5235
I27
sS'united'
p5236
I145
sS'permission'
p5237
I32
sS'hahahaha'
p5238
I91
sS'lounge'
p5239
I112
sS'nostalgic'
p5240
I29
sS'studios'
p5241
I38
sS'culture'
p5242
I61
sS'produce'
p5243
I27
sS'*'
p5244
I3861
sS'trivia'
p5245
I31
sS'='
p5246
I1402
sS'planning'
p5247
I413
sS'table'
p5248
I188
sS'nom'
p5249
I71
sS'ave'
p5250
I53
sS'member'
p5251
I116
sS'definately'
p5252
I109
sS'not'
p5253
I23373
sS'fishing'
p5254
I88
sS'earrings'
p5255
I32
sS'owl'
p5256
I47
sS'own'
p5257
I1283
sS'owe'
p5258
I89
sS'appt'
p5259
I79
sS'apps'
p5260
I192
sS'overtime'
p5261
I38
sS'shane'
p5262
I51
sS'heidi'
p5263
I49
sS'callin'
p5264
I39
sS'commented'
p5265
I46
sS'typed'
p5266
I36
sS'types'
p5267
I37
sS'blind'
p5268
I81
sS'easier'
p5269
I298
sS'series'
p5270
I392
sS'speedy'
p5271
I27
sS'crawl'
p5272
I65
sS'trek'
p5273
I733
sS'trey'
p5274
I32
sS'recommended'
p5275
I84
sS'doors'
p5276
I74
sS'participate'
p5277
I35
sS'rings'
p5278
I52
sS'yogurt'
p5279
I63
sS'vocals'
p5280
I28
sS'violin'
p5281
I32
sS'damaged'
p5282
I32
sS'previous'
p5283
I128
sS'innocent'
p5284
I48
sS'mommys'
p5285
I47
sS'p.m.'
p5286
I25
sS'shakes'
p5287
I33
sS'raised'
p5288
I43
sS'sob'
p5289
I60
sS'sod'
p5290
I34
sS'soo'
p5291
I1036
sS'son'
p5292
I575
sS'soy'
p5293
I43
sS'soz'
p5294
I34
sS'america'
p5295
I249
sS'support'
p5296
I560
sS'sniffles'
p5297
I32
sS'models'
p5298
I63
sS'98'
p5299
I30
sS'skate'
p5300
I46
sS'settle'
p5301
I88
sS'sigh'
p5302
I775
sS'sign'
p5303
I457
sS'papa'
p5304
I65
sS'wicked'
p5305
I152
sS'pretend'
p5306
I95
sS'pumpkin'
p5307
I30
sS's.'
p5308
I38
sS'ss'
p5309
I46
sS'sp'
p5310
I30
sS'st'
p5311
I291
sS'si'
p5312
I107
sS'so'
p5313
I31934
sS'sm'
p5314
I48
sS'sb'
p5315
I26
sS'sa'
p5316
I234
sS'sg'
p5317
I53
sS'sf'
p5318
I132
sS'se'
p5319
I87
sS'sd'
p5320
I70
sS'drunken'
p5321
I55
sS'torn'
p5322
I35
sS'tori'
p5323
I30
sS'poems'
p5324
I32
sS'fml'
p5325
I284
sS'russia'
p5326
I32
sS'to-do'
p5327
I27
sS'average'
p5328
I56
sS'freezing'
p5329
I186
sS'anyways'
p5330
I326
sS'many'
p5331
I2097
sS'mann'
p5332
I37
sS'3000'
p5333
I34
sS'ive'
p5334
I777
sS'ivy'
p5335
I40
sS'memories'
p5336
I230
sS'internship'
p5337
I55
sS'origins'
p5338
I69
sS'xmen'
p5339
I43
sS'homepage'
p5340
I28
sS'returned'
p5341
I102
sS'harry'
p5342
I205
sS'xox'
p5343
I92
sS'atm'
p5344
I250
sS'waves'
p5345
I82
sS'refuse'
p5346
I51
sS'found'
p5347
I1996
sS'owners'
p5348
I32
sS'castle'
p5349
I104
sS'guess'
p5350
I2524
sS'jen'
p5351
I89
sS'huggles'
p5352
I25
sS'writer'
p5353
I77
sS'banned'
p5354
I71
sS'banner'
p5355
I51
sS'spirits'
p5356
I29
sS'demons'
p5357
I279
sS'it\xc2\xb4s'
p5358
I61
sS'champion'
p5359
I35
sS'leaning'
p5360
I27
sS'alert'
p5361
I62
sS'gonna'
p5362
I4989
sS'australia'
p5363
I382
sS'partying'
p5364
I141
sS'spring'
p5365
I573
sS'sprint'
p5366
I29
sS'colorado'
p5367
I62
sS'sized'
p5368
I28
sS't-shirt'
p5369
I72
sS'comming'
p5370
I47
sS'holes'
p5371
I44
sS'fresh'
p5372
I376
sS'ashamed'
p5373
I53
sS'casino'
p5374
I48
sS'rubbish'
p5375
I186
sS'slim'
p5376
I35
sS'slip'
p5377
I46
sS'hawt'
p5378
I33
sS'move'
p5379
I797
sS'truth'
p5380
I174
sS'bother'
p5381
I133
sS'hangover'
p5382
I273
sS'waffles'
p5383
I66
sS'linda'
p5384
I29
sS'*.'
p5385
I44
sS'bring'
p5386
I1007
sS'melissa'
p5387
I51
sS'meant'
p5388
I564
sS'means'
p5389
I884
sS'packed'
p5390
I178
sS'insanely'
p5391
I39
sS'drink'
p5392
I834
sS'coffe'
p5393
I34
sS'nerves'
p5394
I47
sS'swineflu'
p5395
I39
sS'woohoo'
p5396
I277
sS'frank'
p5397
I69
sS'daughter'
p5398
I425
sS'sweeet'
p5399
I58
sS'browsing'
p5400
I44
sS'award'
p5401
I94
sS'aware'
p5402
I80
sS'interview'
p5403
I446
sS'beach'
p5404
I1066
sS'pjs'
p5405
I50
sS'embarrassed'
p5406
I26
sS'throbbing'
p5407
I27
sS'minus'
p5408
I92
sS'voting'
p5409
I94
sS'personality'
p5410
I32
sS'w.'
p5411
I44
sS'we'
p5412
I12234
sS'terms'
p5413
I57
sS'wa'
p5414
I70
sS'wk'
p5415
I89
sS'wi'
p5416
I35
sS'wp'
p5417
I38
sS'brad'
p5418
I66
sS'air'
p5419
I524
sS'aim'
p5420
I154
sS'ain'
p5421
I37
sS'aid'
p5422
I49
sS'\xe2\x80\x99s'
p5423
I34
sS'photo'
p5424
I727
sS'board'
p5425
I253
sS'phew'
p5426
I104
sS'twitterbugs'
p5427
I25
sS'bound'
p5428
I91
sS'converse'
p5429
I44
sS'absent'
p5430
I31
sS'l\xc3\xa0m'
p5431
I30
sS'welcome'
p5432
I2283
sS'grill'
p5433
I69
sS'entries'
p5434
I36
sS'tweeple'
p5435
I90
sS'cuter'
p5436
I29
sS'clothing'
p5437
I52
sS'increase'
p5438
I34
sS'message'
p5439
I708
sS'drove'
p5440
I135
sS'television'
p5441
I50
sS'forever'
p5442
I518
sS'leicester'
p5443
I35
sS'amanda'
p5444
I94
sS'physically'
p5445
I41
sS'asleep'
p5446
I960
sS'ruby'
p5447
I70
sS'cutie'
p5448
I100
sS'followers'
p5449
I1708
sS'rules'
p5450
I136
sS'listening'
p5451
I2002
sS'sry'
p5452
I97
sS'restless'
p5453
I46
sS'tellin'
p5454
I42
sS'7'
p5455
I791
sS'louis'
p5456
I60
sS'kimi'
p5457
I28
sS'sunburned'
p5458
I54
sS'toys'
p5459
I72
sS'offended'
p5460
I39
sS'history'
p5461
I363
sS'sooo'
p5462
I2741
sS'vomit'
p5463
I38
sS'sundays'
p5464
I259
sS'stopped'
p5465
I352
sS'issue'
p5466
I214
sS'launch'
p5467
I142
sS'station'
p5468
I255
sS'banana'
p5469
I142
sS'mickey'
p5470
I48
sS'macs'
p5471
I37
sS'paranoid'
p5472
I108
sS'secrets'
p5473
I32
sS'saturdays'
p5474
I93
sS'step'
p5475
I241
sS'shine'
p5476
I137
sS'shiny'
p5477
I111
sS'.)'
p5478
I118
sS'.,'
p5479
I43
sS'.!'
p5480
I93
sS'."'
p5481
I564
sS'.?'
p5482
I30
sS'.i'
p5483
I28
sS'chelsea'
p5484
I120
sS'fried'
p5485
I103
sS'sausage'
p5486
I83
sS'commercial'
p5487
I110
sS'2moz'
p5488
I51
sS'started'
p5489
I1149
sS'skirt'
p5490
I71
sS'pretending'
p5491
I38
sS'actor'
p5492
I67
sS'rash'
p5493
I32
sS'girlie'
p5494
I81
sS'spotted'
p5495
I52
sS'freeze'
p5496
I48
sS'driveway'
p5497
I27
sS'missing'
p5498
I1589
sS'supernatural'
p5499
I107
sS'backpack'
p5500
I26
sS'kings'
p5501
I115
sS'yay'
p5502
I3393
sS'yao'
p5503
I41
sS'yan'
p5504
I27
sS'slowly'
p5505
I193
sS'yah'
p5506
I168
sS'yaa'
p5507
I40
sS"ya'"
p5508
I41
sS'forgotten'
p5509
I142
sS'fierce'
p5510
I26
sS'munich'
p5511
I33
sS'journal'
p5512
I47
sS'puppies'
p5513
I70
sS'stories'
p5514
I200
sS'diego'
p5515
I111
sS'rumors'
p5516
I28
sS'whose'
p5517
I94
sS"mother's"
p5518
I1822
sS'multiple'
p5519
I88
sS'10k'
p5520
I44
sS'wreck'
p5521
I35
sS"tonight's"
p5522
I69
sS'10:'
p5523
I35
sS'101'
p5524
I44
sS'economics'
p5525
I28
sS'credit'
p5526
I188
sS'pack'
p5527
I293
sS'bone'
p5528
I61
sS'bond'
p5529
I37
sS'navy'
p5530
I31
sS'mini'
p5531
I237
sS'mine'
p5532
I1567
sS'mins'
p5533
I416
sS'mint'
p5534
I76
sS'timberlake'
p5535
I61
sS'i\xc2\xb4m'
p5536
I136
sS'regular'
p5537
I173
sS'ebay'
p5538
I162
sS'sugar'
p5539
I209
sS'grilled'
p5540
I51
sS'decides'
p5541
I31
sS'fluffy'
p5542
I41
sS'decided'
p5543
I519
sS'pete'
p5544
I100
sS'pets'
p5545
I57
sS'against'
p5546
I310
sS'sao'
p5547
I27
sS'san'
p5548
I286
sS'melted'
p5549
I37
sS'bella'
p5550
I85
sS'belly'
p5551
I136
sS'kit'
p5552
I63
sS'kim'
p5553
I116
sS'kid'
p5554
I458
sS'unfollow'
p5555
I100
sS'somethings'
p5556
I26
sS'human'
p5557
I192
sS'character'
p5558
I158
sS'performing'
p5559
I64
sS'bamboozle'
p5560
I234
sS'eek'
p5561
I76
sS'popular'
p5562
I122
sS'ribs'
p5563
I55
sS"a's"
p5564
I30
sS'item'
p5565
I61
sS'adds'
p5566
I31
sS'suggestion'
p5567
I81
sS'hotels'
p5568
I27
sS'wouldnt'
p5569
I152
sS'council'
p5570
I35
sS'johnson'
p5571
I32
sS'tall'
p5572
I62
sS'talk'
p5573
I1838
sS'startrek'
p5574
I41
sS'emailed'
p5575
I70
sS'srsly'
p5576
I63
sS'rock'
p5577
I939
sS'jackson'
p5578
I72
sS'goto'
p5579
I34
sS'gota'
p5580
I29
sS'keith'
p5581
I38
sS'advance'
p5582
I62
sS'crib'
p5583
I60
sS'sounds'
p5584
I2249
sS'eyes'
p5585
I742
sS'eyed'
p5586
I41
sS'speakers'
p5587
I51
sS'shop'
p5588
I537
sS'shot'
p5589
I348
sS'show'
p5590
I3470
sS'corner'
p5591
I161
sS'worrying'
p5592
I71
sS'camping'
p5593
I138
sS'oil'
p5594
I104
sS'money'
p5595
I1276
sS'yaaay'
p5596
I162
sS'grin'
p5597
I46
sS'fringe'
p5598
I66
sS'references'
p5599
I30
sS'gomez'
p5600
I28
sS'downstairs'
p5601
I103
sS'romantic'
p5602
I64
sS'selfish'
p5603
I47
sS'alright'
p5604
I549
sS'emily'
p5605
I128
sS'90s'
p5606
I44
sS'900'
p5607
I34
sS'puke'
p5608
I32
sS'!'
p5609
I114591
sS'wave'
p5610
I83
sS'suffer'
p5611
I59
sS'24'
p5612
I363
sS'25'
p5613
I222
sS'26'
p5614
I102
sS'27'
p5615
I92
sS'20'
p5616
I700
sS'21'
p5617
I204
sS'22'
p5618
I202
sS'23'
p5619
I93
sS'2?'
p5620
I28
sS'29'
p5621
I60
sS'2:'
p5622
I55
sS'2!'
p5623
I84
sS'2,'
p5624
I106
sS'2.'
p5625
I200
sS'noticing'
p5626
I27
sS'complain'
p5627
I108
sS'2b'
p5628
I29
sS'disneyland'
p5629
I107
sS'rockin'
p5630
I93
sS'recording'
p5631
I179
sS'waitin'
p5632
I86
sS'summer'
p5633
I1770
sS'jared'
p5634
I52
sS'ruin'
p5635
I101
sS'unhappy'
p5636
I62
sS'fans'
p5637
I530
sS'champagne'
p5638
I63
sS'dropping'
p5639
I104
sS'gas'
p5640
I106
sS'gap'
p5641
I29
sS'gal'
p5642
I43
sS'gah'
p5643
I248
sS'convo'
p5644
I79
sS'replaced'
p5645
I73
sS'semi'
p5646
I53
sS'connecting'
p5647
I41
sS'ufc'
p5648
I47
sS"'re"
p5649
I2069
sS'kirk'
p5650
I39
sS'maryland'
p5651
I28
sS'payday'
p5652
I38
sS'trail'
p5653
I52
sS'train'
p5654
I618
sS'geez'
p5655
I92
sS'forest'
p5656
I64
sS'fiesta'
p5657
I40
sS'matt'
p5658
I208
sS'mate'
p5659
I463
sS'math'
p5660
I352
sS'thunderstorm'
p5661
I41
sS'lottery'
p5662
I46
sS"where's"
p5663
I123
sS'capacity'
p5664
I30
sS'}'
p5665
I68
sS'pattern'
p5666
I47
sS'deliver'
p5667
I57
sS'swallow'
p5668
I37
sS'proposal'
p5669
I33
sS'graduate'
p5670
I113
sS'campus'
p5671
I79
sS'cause'
p5672
I1433
sS'fabulous'
p5673
I329
sS'julie'
p5674
I41
sS'julia'
p5675
I39
sS'hospital'
p5676
I433
sS'assessment'
p5677
I29
sS'aching'
p5678
I85
sS'aloud'
p5679
I45
sS'each'
p5680
I567
sS'onto'
p5681
I257
sS'rang'
p5682
I38
sS'rant'
p5683
I55
sS'kewl'
p5684
I56
sS'wardrobe'
p5685
I38
sS'pineapple'
p5686
I51
sS'habit'
p5687
I65
sS'savings'
p5688
I28
sS'bugger'
p5689
I98
sS'jennifer'
p5690
I29
sS'malaysia'
p5691
I39
sS'sneezing'
p5692
I70
sS':).'
p5693
I61
sS'leads'
p5694
I47
sS'charge'
p5695
I138
sS'cook'
p5696
I527
sS'cool'
p5697
I3781
sS'cyber'
p5698
I29
sS'healthy'
p5699
I245
sS'iphone'
p5700
I1044
sS'achieve'
p5701
I27
sS'crashed'
p5702
I154
sS'liquid'
p5703
I27
sS'lonely'
p5704
I511
sS'underneath'
p5705
I31
sS'name'
p5706
I1376
sS'plant'
p5707
I95
sS'swine'
p5708
I470
sS'swing'
p5709
I74
sS'childhood'
p5710
I75
sS'unfortunately'
p5711
I662
sS'marathon'
p5712
I292
sS'ideas'
p5713
I340
sS'ideal'
p5714
I44
sS'nightmare'
p5715
I149
sS'trade'
p5716
I85
sS'its'
p5717
I9851
sS'berry'
p5718
I54
sS'duty'
p5719
I122
sS'6.'
p5720
I60
sS'60'
p5721
I136
sS'64'
p5722
I29
sS'65'
p5723
I33
sS'6:'
p5724
I63
sS'engine'
p5725
I68
sS'careful'
p5726
I119
sS'champions'
p5727
I50
sS'sniff'
p5728
I80
sS'cartoon'
p5729
I50
sS'ranch'
p5730
I32
sS'halfway'
p5731
I69
sS'kills'
p5732
I96
sS'shrimp'
p5733
I41
sS'douche'
p5734
I43
sS'gary'
p5735
I45
sS'heather'
p5736
I55
sS'twitterberry'
p5737
I103
sS'awful'
p5738
I347
sS'ftl'
p5739
I25
sS'programme'
p5740
I31
sS'twitterific'
p5741
I33
sS'tags'
p5742
I41
sS'minor'
p5743
I59
sS'v'
p5744
I292
sS'goal'
p5745
I171
sS'algebra'
p5746
I27
sS'softball'
p5747
I72
sS'friendship'
p5748
I66
sS'prolly'
p5749
I116
sS'krispy'
p5750
I29
sS'recovered'
p5751
I51
sS'ashley'
p5752
I137
sS'jsut'
p5753
I26
sS'yeahh'
p5754
I108
sS'cds'
p5755
I71
sS'groups'
p5756
I61
sS'asda'
p5757
I33
sS'goats'
p5758
I26
sS'java'
p5759
I76
sS'holidays'
p5760
I357
sS'cheek'
p5761
I40
sS'cheer'
p5762
I269
sS'doggies'
p5763
I27
sS'library'
p5764
I353
sS'highlight'
p5765
I44
sS'blahh'
p5766
I34
sS'tesco'
p5767
I55
sS'helping'
p5768
I353
sS'start'
p5769
I2810
sS'yesterdays'
p5770
I27
sS'worlds'
p5771
I65
sS'speaks'
p5772
I41
sS'supports'
p5773
I35
sS'ipod'
p5774
I724
sS'vacations'
p5775
I35
sS'blip'
p5776
I114
sS'movin'
p5777
I32
sS'frustrated'
p5778
I109
sS'wall'
p5779
I240
sS'walk'
p5780
I1074
sS'crappy'
p5781
I269
sS'improved'
p5782
I31
sS'divorce'
p5783
I25
sS'tomatoes'
p5784
I26
sS'gutted'
p5785
I282
sS'tumblr'
p5786
I66
sS'van'
p5787
I114
sS'val'
p5788
I29
sS'whether'
p5789
I167
sS'mutual'
p5790
I27
sS'lord'
p5791
I236
sS'bacon'
p5792
I242
sS'second'
p5793
I808
sS'holy'
p5794
I284
sS'hols'
p5795
I79
sS'hole'
p5796
I138
sS'hold'
p5797
I383
sS'h1n1'
p5798
I55
sS'hon'
p5799
I98
sS'hoo'
p5800
I57
sS'hol'
p5801
I28
sS'how'
p5802
I10209
sS'hot'
p5803
I2054
sS'hop'
p5804
I95
sS'beauty'
p5805
I173
sS"we'd"
p5806
I73
sS'kayla'
p5807
I38
sS"today's"
p5808
I242
sS'awaresg'
p5809
I44
sS'touched'
p5810
I55
sS'result'
p5811
I188
sS'hammer'
p5812
I29
sS'wikipedia'
p5813
I29
sS'wtf'
p5814
I486
sS'wth'
p5815
I86
sS'asked'
p5816
I450
sS'diff'
p5817
I71
sS'played'
p5818
I507
sS'player'
p5819
I188
sS'thingy'
p5820
I98
sS'burgers'
p5821
I53
sS'creative'
p5822
I190
sS'o'
p5823
I431
sS'rolling'
p5824
I94
sS':-'
p5825
I46
sS':/'
p5826
I545
sS':('
p5827
I131291
sS':$'
p5828
I32
sS':>'
p5829
I35
sS':0'
p5830
I28
sS':3'
p5831
I37
sS':l'
p5832
I132
sS':o'
p5833
I424
sS':d'
p5834
I40656
sS':|'
p5835
I337
sS':x'
p5836
I36
sS':p'
p5837
I433
sS':@'
p5838
I78
sS':\\'
p5839
I92
sS':]'
p5840
I223
sS':['
p5841
I39
sS'grandparents'
p5842
I88
sS'alone'
p5843
I973
sS'along'
p5844
I511
sS'films'
p5845
I94
sS'laundry'
p5846
I328
sS'such'
p5847
I2149
sS'suck'
p5848
I778
sS'truck'
p5849
I110
sS'appropriate'
p5850
I48
sS'formula'
p5851
I31
sS'photoshoot'
p5852
I86
sS'besides'
p5853
I181
sS'programming'
p5854
I63
sS'boyfriend'
p5855
I485
sS'aaand'
p5856
I43
sS'sewing'
p5857
I59
sS'butterfly'
p5858
I45
sS'tears'
p5859
I210
sS'beatles'
p5860
I45
sS'whaaat'
p5861
I42
sS'artist'
p5862
I102
sS'where'
p5863
I3162
sS'no-one'
p5864
I50
sS'cleared'
p5865
I33
sS'stretch'
p5866
I46
sS'runny'
p5867
I46
sS'hubby'
p5868
I525
sS'hayley'
p5869
I40
sS'noon'
p5870
I128
sS'nooo'
p5871
I666
sS'exit'
p5872
I33
sS'power'
p5873
I472
sS'complete'
p5874
I319
sS'hardly'
p5875
I176
sS'napping'
p5876
I52
sS'darker'
p5877
I26
sS'exhausted'
p5878
I371
sS'certain'
p5879
I156
sS'smile'
p5880
I824
sS'laying'
p5881
I317
sS'freakin'
p5882
I269
sS'method'
p5883
I41
sS'social'
p5884
I343
sS"would've"
p5885
I104
sS'lotsa'
p5886
I40
sS'dress'
p5887
I495
sS'ruining'
p5888
I41
sS'warped'
p5889
I59
sS'digg'
p5890
I50
sS'currently'
p5891
I434
sS'rite'
p5892
I138
sS'devil'
p5893
I74
sS'palace'
p5894
I33
sS'emailunlimited'
p5895
I41
sS'ducks'
p5896
I69
sS'triple'
p5897
I46
sS'beautifully'
p5898
I25
sS'involves'
p5899
I30
sS'amp'
p5900
I26
sS'surprises'
p5901
I48
sS'fitting'
p5902
I42
sS'surprised'
p5903
I220
sS'projects'
p5904
I161
sS'tara'
p5905
I29
sS'fighter'
p5906
I38
sS'balls'
p5907
I153
sS'marry'
p5908
I78
sS'yayyy'
p5909
I160
sS'indian'
p5910
I108
sS'receive'
p5911
I97
sS'popcorn'
p5912
I78
sS'opinion'
p5913
I137
sS'on'
p5914
I38599
sS'ol'
p5915
I146
sS'animals'
p5916
I116
sS'ou'
p5917
I38
sS'or'
p5918
I7128
sS'watermelon'
p5919
I25
sS'motorcycle'
p5920
I57
sS'earn'
p5921
I53
sS'shut'
p5922
I362
sS'shud'
p5923
I88
sS'scary'
p5924
I414
sS'pudding'
p5925
I59
sS'ears'
p5926
I201
sS'scare'
p5927
I77
sS'haven'
p5928
I281
sS'h'
p5929
I65
sS'etc'
p5930
I364
sS'drank'
p5931
I139
sS'digging'
p5932
I63
sS'upon'
p5933
I98
sS'paul'
p5934
I193
sS'garage'
p5935
I113
sS'does'
p5936
I2369
sS'relationships'
p5937
I39
sS'tickets'
p5938
I673
sS'toll'
p5939
I37
sS'told'
p5940
I980
sS'word'
p5941
I778
sS'wore'
p5942
I95
sS'work'
p5943
I14922
sS'worm'
p5944
I35
sS'worn'
p5945
I73
sS'indie'
p5946
I40
sS'india'
p5947
I151
sS'disappoint'
p5948
I33
sS'order'
p5949
I405
sS'office'
p5950
I1262
sS'muffin'
p5951
I82
sS'masterchef'
p5952
I36
sS'><'
p5953
I32
sS'rejected'
p5954
I34
sS'toronto'
p5955
I133
sS'mercy'
p5956
I33
sS'phase'
p5957
I50
sS'guna'
p5958
I29
sS'sharks'
p5959
I36
sS'steak'
p5960
I110
sS'steal'
p5961
I105
sS'steam'
p5962
I32
sS'pedicure'
p5963
I25
sS'received'
p5964
I175
sS'ill'
p5965
I1526
sS'ily'
p5966
I242
sS'speak'
p5967
I374
sS'levels'
p5968
I78
sS'b-day'
p5969
I100
sS'photographer'
p5970
I49
sS'theyre'
p5971
I76
sS'neva'
p5972
I35
sS'horizon'
p5973
I28
sS'reality'
p5974
I257
sS'dance'
p5975
I690
sS'htc'
p5976
I30
sS'rough'
p5977
I246
sS'buck'
p5978
I27
sS'fortunately'
p5979
I32
sS'familiar'
p5980
I63
sS'southern'
p5981
I56
sS'showered'
p5982
I60
sS'honest'
p5983
I159
sS'premier'
p5984
I39
sS'tooth'
p5985
I164
sS'professional'
p5986
I53
sS'crashing'
p5987
I79
sS"couldn't"
p5988
I977
sS'100th'
p5989
I58
sS'bigger'
p5990
I161
sS'early'
p5991
I2922
sS'business'
p5992
I540
sS'unwell'
p5993
I36
sS'youu'
p5994
I145
sS'your'
p5995
I16096
sS'area'
p5996
I271
sS'aren'
p5997
I58
sS'deadline'
p5998
I68
sS'fence'
p5999
I27
sS'21st'
p6000
I131
sS'aaahhh'
p6001
I70
sS'a'
p6002
I81637
sS'relaxin'
p6003
I36
sS'goodnite'
p6004
I86
sS'terrible'
p6005
I404
sS'round'
p6006
I473
sS'terribly'
p6007
I96
sS'miss'
p6008
I6358
sS'ikea'
p6009
I73
sS'translation'
p6010
I45
sS'bride'
p6011
I102
sS'overcast'
p6012
I60
sS'homeworks'
p6013
I32
sS'mega'
p6014
I63
sS'imac'
p6015
I58
sS'imax'
p6016
I66
sS'everywhere'
p6017
I264
sS'skype'
p6018
I162
sS'bonus'
p6019
I73
sS'poland'
p6020
I27
sS'urgent'
p6021
I28
sS'sweating'
p6022
I37
sS'registered'
p6023
I48
sS'ahhh'
p6024
I1043
sS'nah'
p6025
I390
sS'nan'
p6026
I30
sS'nao'
p6027
I33
sS'naw'
p6028
I82
sS'nat'
p6029
I54
sS'nay'
p6030
I29
sS'isplayer'
p6031
I61
sS'cell'
p6032
I257
sS'singing'
p6033
I449
sS'becomes'
p6034
I55
sS'salad'
p6035
I160
sS'rove'
p6036
I139
sS"won't"
p6037
I1788
sS'mentioned'
p6038
I157
sS'playground'
p6039
I25
sS'attending'
p6040
I58
sS'spots'
p6041
I45
sS'adopted'
p6042
I27
sS"that'll"
p6043
I60
sS'screw'
p6044
I131
sS'able'
p6045
I1128
sS'aww'
p6046
I1793
sS'awh'
p6047
I122
sS'awe'
p6048
I159
sS'indoor'
p6049
I30
sS'earned'
p6050
I40
sS'winner'
p6051
I148
sS'employee'
p6052
I28
sS'overall'
p6053
I87
sS'monitor'
p6054
I68
sS'journey'
p6055
I134
sS'treat'
p6056
I162
sS'oth'
p6057
I31
sS'balloon'
p6058
I40
sS'effect'
p6059
I122
sS'restore'
p6060
I28
sS'5am'
p6061
I180
sS'martin'
p6062
I85
sS'twitter'
p6063
I8555
sS'kettle'
p6064
I32
sS'cricket'
p6065
I99
sS'penny'
p6066
I39
sS'twitterworld'
p6067
I34
sS'captain'
p6068
I58
sS'sweetest'
p6069
I54
sS'campaign'
p6070
I60
sS'edward'
p6071
I93
sS'ergh'
p6072
I25
sS'honey'
p6073
I350
sS'lesbian'
p6074
I39
sS'purchase'
p6075
I60
sS'deck'
p6076
I109
sS'rachel'
p6077
I105
sS"doctor's"
p6078
I29
sS'turning'
p6079
I220
sS'starts'
p6080
I534
sS'twisted'
p6081
I59
sS'anxiety'
p6082
I46
sS'chest'
p6083
I122
sS'retire'
p6084
I35
sS'colorful'
p6085
I26
sS'lick'
p6086
I35
sS'threw'
p6087
I139
sS'suppose'
p6088
I344
sS'seattle'
p6089
I143
sS'sentence'
p6090
I44
sS'performance'
p6091
I220
sS'sheets'
p6092
I76
sS'queens'
p6093
I39
sS'toss'
p6094
I29
sS'handed'
p6095
I67
sS'haha'
p6096
I1604
sS'jones'
p6097
I81
sS'themes'
p6098
I43
sS'playoffs'
p6099
I79
sS'suicide'
p6100
I36
sS'dim'
p6101
I37
sS'din'
p6102
I74
sS'did'
p6103
I5922
sS'die'
p6104
I510
sS'dia'
p6105
I97
sS'diy'
p6106
I32
sS'dip'
p6107
I40
sS'dis'
p6108
I114
sS'favour'
p6109
I27
sS'fly'
p6110
I372
sS'soul'
p6111
I175
sS'sour'
p6112
I45
sS'flo'
p6113
I26
sS'aaah'
p6114
I147
sS'6th'
p6115
I102
sS'maid'
p6116
I26
sS'mail'
p6117
I350
sS'main'
p6118
I170
sS'slept'
p6119
I674
sS"here's"
p6120
I150
sS'voices'
p6121
I37
sS'winding'
p6122
I26
sS'answering'
p6123
I74
sS'channel'
p6124
I301
sS'forecast'
p6125
I63
sS'unusual'
p6126
I36
sS'shopping'
p6127
I1269
sS'warning'
p6128
I91
sS'harsh'
p6129
I49
sS'doctor'
p6130
I282
sS'among'
p6131
I39
sS'bread'
p6132
I244
sS'dave'
p6133
I192
sS'children'
p6134
I221
sS'burger'
p6135
I107
sS'cancelled'
p6136
I290
sS'published'
p6137
I48
sS'tweeting'
p6138
I735
sS'eats'
p6139
I53
sS'mental'
p6140
I100
sS'house'
p6141
I2839
sS'connect'
p6142
I125
sS'finland'
p6143
I49
sS'cups'
p6144
I66
sS'killin'
p6145
I39
sS'treated'
p6146
I43
sS'byeee'
p6147
I44
sS'joining'
p6148
I116
sS'nahh'
p6149
I25
sS'fine'
p6150
I1173
sS'find'
p6151
I3188
sS'bebo'
p6152
I52
sS'please'
p6153
I3708
sS'powers'
p6154
I51
sS'leopard'
p6155
I34
sS'flags'
p6156
I57
sS'ppl'
p6157
I765
sS'aliens'
p6158
I57
sS'directed'
p6159
I25
sS'lyk'
p6160
I33
sS'lend'
p6161
I30
sS'leno'
p6162
I29
sS'lens'
p6163
I66
sS'2000'
p6164
I67
sS'2006'
p6165
I29
sS'2007'
p6166
I44
sS'2008'
p6167
I83
sS'2009'
p6168
I264
sS'jason'
p6169
I177
sS'arrange'
p6170
I30
sS'joel'
p6171
I42
sS'joey'
p6172
I115
sS'bleeding'
p6173
I69
sS'body'
p6174
I580
sS'alaska'
p6175
I30
sS'screening'
p6176
I31
sS'subscription'
p6177
I32
sS'britney'
p6178
I181
sS'native'
p6179
I34
sS'waters'
p6180
I30
sS'collection'
p6181
I116
sS'cuddling'
p6182
I54
sS'lines'
p6183
I152
sS'happiest'
p6184
I35
sS'leader'
p6185
I37
sS'mention'
p6186
I386
sS'cutting'
p6187
I122
sS'marley'
p6188
I127
sS'l.a.'
p6189
I44
sS'unless'
p6190
I296
sS'roadtrip'
p6191
I36
sS'beat'
p6192
I510
sS'bear'
p6193
I184
sS'bean'
p6194
I68
sS'samantha'
p6195
I37
sS'exists'
p6196
I29
sS'progress'
p6197
I134
sS'vent'
p6198
I31
sS'copies'
p6199
I29
sS'linkedin'
p6200
I25
sS'domestic'
p6201
I25
sS'dryer'
p6202
I41
sS'heeey'
p6203
I76
sS'alive'
p6204
I287
sS'soil'
p6205
I25
sS'glory'
p6206
I43
sS'pin'
p6207
I40
sS'pic'
p6208
I1396
sS'pie'
p6209
I160
sS'pig'
p6210
I97
sS'pix'
p6211
I92
sS'pit'
p6212
I82
sS'hating'
p6213
I148
sS'regrets'
p6214
I25
sS"grandma's"
p6215
I40
sS'jogging'
p6216
I46
sS'hellooo'
p6217
I58
sS'sitting'
p6218
I1170
sS'poker'
p6219
I124
sS'netherlands'
p6220
I28
sS'newport'
p6221
I31
sS'wanted'
p6222
I1654
sS'20th'
p6223
I73
sS'mothersday'
p6224
I29
sS'classes'
p6225
I306
sS'audition'
p6226
I58
sS'metal'
p6227
I76
sS'chuffed'
p6228
I25
sS'welsh'
p6229
I28
sS'mentioning'
p6230
I35
sS'spencer'
p6231
I45
sS'laptop'
p6232
I753
sS'thr'
p6233
I25
sS'anderson'
p6234
I28
sS'uncle'
p6235
I173
sS'tix'
p6236
I156
sS'tip'
p6237
I219
sS'tis'
p6238
I159
sS'tim'
p6239
I164
sS'tin'
p6240
I25
sS'tie'
p6241
I63
sS'longer'
p6242
I616
sS'neighbors'
p6243
I91
sS'quick'
p6244
I447
sS'water'
p6245
I735
sS'sessions'
p6246
I58
sS'numbers'
p6247
I121
sS'stream'
p6248
I154
sS'4th'
p6249
I257
sS'exclusive'
p6250
I43
sS'midnight'
p6251
I264
sS'hacked'
p6252
I65
sS'george'
p6253
I140
sS'exploring'
p6254
I47
sS'season'
p6255
I1081
sS'omggg'
p6256
I55
sS'parking'
p6257
I119
sS'wayy'
p6258
I32
sS'ways'
p6259
I193
sS'driver'
p6260
I111
sS'flakes'
p6261
I30
sS'gavin'
p6262
I25
sS'kill'
p6263
I466
sS'hint'
p6264
I75
sS"everyone's"
p6265
I102
sS'oddly'
p6266
I39
sS'madrid'
p6267
I55
sS'stops'
p6268
I89
sS'cambridge'
p6269
I36
sS'rubber'
p6270
I28
sS'trash'
p6271
I86
sS'separate'
p6272
I31
sS'fax'
p6273
I26
sS'song'
p6274
I2492
sS'far'
p6275
I1728
sS'fav'
p6276
I369
sS'fat'
p6277
I354
sS'fab'
p6278
I249
sS'beginning'
p6279
I219
sS'stick'
p6280
I267
sS'challenging'
p6281
I31
sS'sunscreen'
p6282
I32
sS'sandwich'
p6283
I164
sS'sleeepy'
p6284
I27
sS'refresh'
p6285
I41
sS'headache'
p6286
I1095
sS'option'
p6287
I157
sS'double'
p6288
I339
sS'achievement'
p6289
I29
sS'banquet'
p6290
I27
sS'gawd'
p6291
I39
sS'various'
p6292
I47
sS'law'
p6293
I259
sS'edge'
p6294
I76
sS'montreal'
p6295
I56
sS'sittin'
p6296
I103
sS'ignore'
p6297
I116
sS'zzz'
p6298
I127
sS'foood'
p6299
I37
sS'11:11'
p6300
I25
sS'scroll'
p6301
I35
sS'sinuses'
p6302
I26
sS'rabbit'
p6303
I75
sS'rape'
p6304
I30
sS'covered'
p6305
I189
sS'hmph'
p6306
I46
sS'anyhow'
p6307
I31
sS'conversation'
p6308
I165
sS'?,'
p6309
I30
sS'adrian'
p6310
I28
sS'heroes'
p6311
I121
sS'doomed'
p6312
I26
sS'bagel'
p6313
I55
sS'debate'
p6314
I37
sS'spoil'
p6315
I63
sS'birthdays'
p6316
I42
sS'vanilla'
p6317
I76
sS'wild'
p6318
I149
sS'whore'
p6319
I80
sS'yooo'
p6320
I31
sS'sunrise'
p6321
I65
sS'arse'
p6322
I94
sS'happiness'
p6323
I171
sS'james'
p6324
I242
sS'110'
p6325
I25
sS'11:'
p6326
I31
sS'lead'
p6327
I135
sS'leak'
p6328
I32
sS'leah'
p6329
I39
sS'slut'
p6330
I26
sS'spilled'
p6331
I56
sS'shipping'
p6332
I57
sS'buffy'
p6333
I43
sS'boot'
p6334
I109
sS'book'
p6335
I1323
sS'boom'
p6336
I117
sS'booo'
p6337
I398
sS'four'
p6338
I323
sS'cooking'
p6339
I303
sS'china'
p6340
I126
sS'music'
p6341
I2214
sS'therefore'
p6342
I73
sS'locked'
p6343
I155
sS'pooped'
p6344
I32
sS'wales'
p6345
I63
sS'twits'
p6346
I111
sS'twitt'
p6347
I42
sS'kfc'
p6348
I52
sS'service'
p6349
I496
sS'singer'
p6350
I138
sS"u'll"
p6351
I69
sS'bliss'
p6352
I93
sS'rich'
p6353
I128
sS'blonde'
p6354
I94
sS'union'
p6355
I37
sS'split'
p6356
I87
sS'supper'
p6357
I38
sS'alice'
p6358
I76
sS'begin'
p6359
I181
sS'stoked'
p6360
I133
sS'stays'
p6361
I95
sS'cooks'
p6362
I28
sS'boost'
p6363
I46
sS'aint'
p6364
I375
sS'sudden'
p6365
I89
sS'blogtv'
p6366
I39
sS'mango'
p6367
I60
sS'wolves'
p6368
I33
sS'manga'
p6369
I25
sS'shhh'
p6370
I52
sS'complicated'
p6371
I85
sS'one'
p6372
I12025
sS'looong'
p6373
I151
sS'invite'
p6374
I212
sS'printer'
p6375
I56
sS'printed'
p6376
I45
sS'phil'
p6377
I75
sS'awaiting'
p6378
I56
sS"could've"
p6379
I77
sS'refreshed'
p6380
I48
sS'enjoys'
p6381
I25
sS'hung'
p6382
I153
sS'former'
p6383
I51
sS'sickness'
p6384
I97
sS'wired'
p6385
I33
sS'world'
p6386
I2299
sS'diving'
p6387
I40
sS'divine'
p6388
I40
sS'pull'
p6389
I183
sS'24th'
p6390
I32
sS'small'
p6391
I557
sS'anywho'
p6392
I27
sS'november'
p6393
I66
sS'followed'
p6394
I360
sS'follower'
p6395
I353
sS'asot400'
p6396
I295
sS'shipped'
p6397
I25
sS'dessert'
p6398
I65
sS'intended'
p6399
I34
sS'replies'
p6400
I215
sS'smiling'
p6401
I210
sS'symptoms'
p6402
I42
sS'channels'
p6403
I44
sS'amazinggg'
p6404
I37
sS'interviewed'
p6405
I26
sS'nigga'
p6406
I44
sS'condolences'
p6407
I49
sS'sell'
p6408
I268
sS'self'
p6409
I387
sS'virus'
p6410
I129
sS'ugh'
p6411
I1912
sS'bahahaha'
p6412
I25
sS'caramel'
p6413
I54
sS'tree'
p6414
I222
sS'project'
p6415
I687
sS'15th'
p6416
I62
sS'last'
p6417
I8538
sS'connection'
p6418
I213
sS'honor'
p6419
I98
sS'tryin'
p6420
I134
sS'emergency'
p6421
I61
sS'melbourne'
p6422
I177
sS"b'day"
p6423
I34
sS'span'
p6424
I25
sS'spam'
p6425
I249
sS'camp'
p6426
I249
sS'resources'
p6427
I25
sS'babe'
p6428
I472
sS'baby'
p6429
I2197
sS'coolness'
p6430
I30
sS'realized'
p6431
I423
sS'perfect'
p6432
I882
sS'morgen'
p6433
I31
sS'nowadays'
p6434
I40
sS'chilli'
p6435
I26
sS'scene'
p6436
I169
sS'soothing'
p6437
I27
sS'ordering'
p6438
I47
sS'dishes'
p6439
I120
sS'horny'
p6440
I27
sS'>'
p6441
I787
sS'paula'
p6442
I44
sS'patterns'
p6443
I31
sS'audio'
p6444
I122
sS'double_semicolon'
p6445
I45
sS'tick'
p6446
I33
sS'pies'
p6447
I32
sS'choosing'
p6448
I28
sS'kiddo'
p6449
I42
sS'pressure'
p6450
I109
sS'documentary'
p6451
I43
sS"cousin's"
p6452
I56
sS'repeat'
p6453
I133
sS'gardens'
p6454
I70
sS'eurovision'
p6455
I281
sS'mitchel'
p6456
I36
sS'plot'
p6457
I36
sS'provide'
p6458
I43
sS'leftovers'
p6459
I25
sS'veggies'
p6460
I45
sS'dammit'
p6461
I216
sS'renew'
p6462
I29
sS'wasted'
p6463
I145
sS'germany'
p6464
I331
sS'sites'
p6465
I180
sS'pfft'
p6466
I37
sS'noes'
p6467
I75
sS'cont'
p6468
I36
sS'amount'
p6469
I142
sS':(.'
p6470
I36
sS'hang'
p6471
I706
sS'hand'
p6472
I628
sS'jose'
p6473
I37
sS'josh'
p6474
I130
sS'bore'
p6475
I25
sS'wasting'
p6476
I62
sS'prayer'
p6477
I84
sS'bangs'
p6478
I38
sS'wonderfully'
p6479
I29
sS'economy'
p6480
I49
sS'serving'
p6481
I34
sS'mocha'
p6482
I60
sS'sox'
p6483
I79
sS'fixed'
p6484
I372
sS'blink'
p6485
I80
sS'ring'
p6486
I239
sS'appreciated'
p6487
I185
sS'mrs'
p6488
I145
sS'snack'
p6489
I93
sS'import'
p6490
I26
sS'taxi'
p6491
I59
sS'ps2'
p6492
I25
sS'ps3'
p6493
I91
sS'renewed'
p6494
I50
sS'verse'
p6495
I27
sS'swim'
p6496
I167
sS'psp'
p6497
I36
sS'blackberry'
p6498
I311
sS'sixth'
p6499
I26
sS'^_^'
p6500
I2376
sS'soda'
p6501
I60
sS'outlook'
p6502
I49
sS'stare'
p6503
I35
sS'stars'
p6504
I200
sS'allergic'
p6505
I95
sS'tight'
p6506
I151
sS'delayed'
p6507
I127
sS'default'
p6508
I51
sS'forcing'
p6509
I30
sS'horror'
p6510
I71
sS'learned'
p6511
I209
sS'glad'
p6512
I2844
sS'tracks'
p6513
I72
sS'eventful'
p6514
I37
sS'phrase'
p6515
I54
sS'icing'
p6516
I31
sS'photoshop'
p6517
I124
sS'bcuz'
p6518
I35
sS'starbucks'
p6519
I404
sS'sucksss'
p6520
I25
sS'safety'
p6521
I48
sS'grew'
p6522
I71
sS'grey'
p6523
I177
sS'greg'
p6524
I45
sS'cave'
p6525
I32
sS'cavs'
p6526
I65
sS'aired'
p6527
I26
sS'feels'
p6528
I1218
sS'close'
p6529
I732
sS'pictures'
p6530
I692
sS'pace'
p6531
I37
sS'ought'
p6532
I30
sS'guide'
p6533
I87
sS'philly'
p6534
I104
sS'blair'
p6535
I32
sS'000'
p6536
I106
sS'nikki'
p6537
I54
sS'at&t'
p6538
I31
sS'bgt'
p6539
I34
sS'approved'
p6540
I43
sS'amounts'
p6541
I43
sS'happens'
p6542
I509
sS'dvd'
p6543
I465
sS'dvr'
p6544
I82
sS'genius'
p6545
I129
sS'michael'
p6546
I212
sS'ryan'
p6547
I212
sS'allowed'
p6548
I245
sS'stole'
p6549
I136
sS'farm'
p6550
I79
sS'fart'
p6551
I30
sS'costume'
p6552
I45
sS'vancouver'
p6553
I99
sS'entertainment'
p6554
I89
sS'hehe'
p6555
I251
sS"you're"
p6556
I3786
sS'lists'
p6557
I37
sS'submitted'
p6558
I34
sS'relatives'
p6559
I33
sS'sl'
p6560
I28
sS'sc'
p6561
I53
sS'gallery'
p6562
I46
sS'ure'
p6563
I42
sS'url'
p6564
I132
sS'urs'
p6565
I58
sS'tuned'
p6566
I88
sS'tunes'
p6567
I118
sS'hits'
p6568
I110
sS'parts'
p6569
I135
sS'party'
p6570
I2080
sS'loss'
p6571
I244
sS'lost'
p6572
I2586
sS'lose'
p6573
I391
sS'home'
p6574
I8982
sS'reaching'
p6575
I44
sS'strawberries'
p6576
I82
sS'display'
p6577
I75
sS'universal'
p6578
I40
sS'buddy'
p6579
I310
sS'fantastic'
p6580
I560
sS'survive'
p6581
I113
sS'stressing'
p6582
I55
sS'colds'
p6583
I30
sS'goodbye'
p6584
I358
sS'wut'
p6585
I32
sS'wud'
p6586
I74
sS'ihop'
p6587
I49
sS'resume'
p6588
I47
sS'bleach'
p6589
I28
sS'suggested'
p6590
I45
sS'basis'
p6591
I32
sS'tiny'
p6592
I192
sS'ting'
p6593
I27
sS'tina'
p6594
I53
sS'basic'
p6595
I55
sS'tink'
p6596
I54
sS'seven'
p6597
I117
sS'80s'
p6598
I60
sS'settled'
p6599
I56
sS'800'
p6600
I48
sS'save'
p6601
I558
sS'zombies'
p6602
I60
sS'would'
p6603
I6150
sS'subs'
p6604
I26
sS'marking'
p6605
I35
sS'0'
p6606
I86
sS'international'
p6607
I93
sS'visit'
p6608
I808
sS'making'
p6609
I1978
sS'nearest'
p6610
I35
sS'basket'
p6611
I32
sS'shoes'
p6612
I485
sS'group'
p6613
I439
sS'interesting'
p6614
I949
sS'funky'
p6615
I52
sS"cook's"
p6616
I62
sS'bailey'
p6617
I30
sS'said'
p6618
I2065
sS'beta'
p6619
I163
sS'complaints'
p6620
I31
sS'beth'
p6621
I36
sS'coupons'
p6622
I25
sS'concentrate'
p6623
I89
sS'laptops'
p6624
I56
sS'dramatic'
p6625
I31
sS'sound'
p6626
I818
sS'coco'
p6627
I43
sS'cock'
p6628
I44
sS'flies'
p6629
I74
sS'outdoor'
p6630
I45
sS'rental'
p6631
I35
sS'pockets'
p6632
I25
sS'mondays'
p6633
I316
sS'shattered'
p6634
I73
sS'enjoying'
p6635
I1049
sS'bestie'
p6636
I99
sS'winning'
p6637
I188
sS"c'mon"
p6638
I41
sS'boredd'
p6639
I28
sS'coming'
p6640
I2488
sS'through'
p6641
I1601
sS'primary'
p6642
I26
sS'reply'
p6643
I975
sS'stiff'
p6644
I41
sS'mmm'
p6645
I848
sS'needing'
p6646
I51
sS'expert'
p6647
I54
sS'bak'
p6648
I70
sS'baltimore'
p6649
I30
sS'x-men'
p6650
I68
sS'starving'
p6651
I123
sS'migraine'
p6652
I123
sS'task'
p6653
I69
sS'i\xe2\x80\x99m'
p6654
I38
sS'source'
p6655
I107
sS'yucky'
p6656
I92
sS"weekend's"
p6657
I36
sS'decision'
p6658
I136
sS'epic'
p6659
I375
sS'planet'
p6660
I125
sS'planes'
p6661
I26
sS'ellen'
p6662
I129
sS'strep'
p6663
I40
sS'talent'
p6664
I181
sS'climb'
p6665
I120
sS'cha'
p6666
I56
sS'chi'
p6667
I65
sS'4am'
p6668
I158
sS'noises'
p6669
I51
sS'10pm'
p6670
I57
sS'cider'
p6671
I34
sS'homeless'
p6672
I37
sS'que'
p6673
I106
sS'nobody'
p6674
I317
sS'throat'
p6675
I730
sS'discovery'
p6676
I38
sS'however'
p6677
I294
sS'commenting'
p6678
I35
sS'partner'
p6679
I87
sS'productivity'
p6680
I41
sS')'
p6681
I10193
sS'smart'
p6682
I250
sS'screwed'
p6683
I161
sS'tomm'
p6684
I25
sS'tomo'
p6685
I36
sS'seniors'
p6686
I45
sS'afterall'
p6687
I26
sS'female'
p6688
I167
sS'sequel'
p6689
I36
sS'school'
p6690
I5459
sS'blue'
p6691
I525
sS'patience'
p6692
I63
sS'offf'
p6693
I25
sS'splendid'
p6694
I29
sS'ima'
p6695
I210
sS'imy'
p6696
I33
sS'laid'
p6697
I71
sS'heck'
p6698
I176
sS'fantasy'
p6699
I71
sS'hangout'
p6700
I26
sS"girl's"
p6701
I27
sS'grandmother'
p6702
I46
sS'news'
p6703
I1146
sS'seein'
p6704
I40
sS'nike'
p6705
I32
sS'<MENTION>'
p6706
I184459
sS'coachella'
p6707
I83
sS'jean'
p6708
I35
sS'bruise'
p6709
I37
sS'burns'
p6710
I40
sS'burnt'
p6711
I196
sS'rumor'
p6712
I31
sS'footy'
p6713
I92
sS'deleted'
p6714
I159
sS'bath'
p6715
I285
sS'6'
p6716
I1019
sS'upset'
p6717
I502
sS'perez'
p6718
I26
sS'whee'
p6719
I27
sS'when'
p6720
I8716
sS'whew'
p6721
I91
sS'impression'
p6722
I46
sS'posts'
p6723
I220
sS'standards'
p6724
I28
sS'pork'
p6725
I71
sS'porn'
p6726
I95
sS'colin'
p6727
I42
sS'port'
p6728
I83
sS'yup'
p6729
I521
sS'yur'
p6730
I29
sS'yuk'
p6731
I41
sS'computer'
p6732
I1037
sS'measure'
p6733
I26
sS'later'
p6734
I2639
sS"y'all"
p6735
I191
sS'contract'
p6736
I72
sS'nicole'
p6737
I77
sS'andrew'
p6738
I111
sS'andrea'
p6739
I49
sS'spirit'
p6740
I116
sS'pilot'
p6741
I36
sS'granted'
p6742
I32
sS'yeahhh'
p6743
I92
sS'week'
p6744
I5382
sS'weee'
p6745
I88
sS'weed'
p6746
I57
sS'director'
p6747
I35
sS'relief'
p6748
I77
sS'lets'
p6749
I640
sS'mood'
p6750
I736
sS'moon'
p6751
I296
sS'there'
p6752
I9600
sS'it?!'
p6753
I34
sS'grass'
p6754
I144
sS'breakers'
p6755
I28
sS'hairspray'
p6756
I27
sS'rascal'
p6757
I29
sS'brief'
p6758
I43
sS'version'
p6759
I444
sS'donuts'
p6760
I99
sS'okay'
p6761
I1742
sS'bahaha'
p6762
I56
sS'short'
p6763
I761
sS'shore'
p6764
I41
sS'hunter'
p6765
I32
sS'alcohol'
p6766
I180
sS'friday'
p6767
I2142
sS'jet'
p6768
I83
sS'fallen'
p6769
I65
sS'"'
p6770
I8064
sS'interviews'
p6771
I73
sS'wolframalpha'
p6772
I30
sS'electric'
p6773
I76
sS'wohoo'
p6774
I25
sS'sweet'
p6775
I1853
sS'sweep'
p6776
I25
sS'frozen'
p6777
I79
sS'prince'
p6778
I117
sS'collect'
p6779
I45
sS'dads'
p6780
I120
sS'johns'
p6781
I47
sS'peach'
p6782
I42
sS'peace'
p6783
I433
sS'posters'
p6784
I53
sS'microsoft'
p6785
I77
sS'windy'
p6786
I165
sS'winds'
p6787
I32
sS'fold'
p6788
I26
sS'folk'
p6789
I51
sS'19th'
p6790
I50
sS'youngest'
p6791
I46
sS'pump'
p6792
I47
sS'shades'
p6793
I52
sS'leaving'
p6794
I1001
sS'app'
p6795
I505
sS'apt'
p6796
I103
sS'api'
p6797
I58
sS'duck'
p6798
I80
sS'syndrome'
p6799
I43
sS'articles'
p6800
I74
sS'our'
p6801
I3633
sS'out'
p6802
I18649
sS'twat'
p6803
I45
sS'holland'
p6804
I51
sS"let's"
p6805
I374
sS'martha'
p6806
I25
sS'agreed'
p6807
I201
sS'fear'
p6808
I173
sS'feat'
p6809
I32
sS'agrees'
p6810
I34
sS'favor'
p6811
I73
sS'bought'
p6812
I1044
sS'ability'
p6813
I71
sS'opening'
p6814
I198
sS'planned'
p6815
I237
sS'vicky'
p6816
I26
sS'~'
p6817
I868
sS'perhaps'
p6818
I292
sS'difficult'
p6819
I234
sS'contest'
p6820
I244
sS'facial'
p6821
I30
sS'press'
p6822
I126
sS'<CAPS>'
p6823
I26065
sS'jeremy'
p6824
I50
sS'aloha'
p6825
I31
sS'methinks'
p6826
I48
sS'weather'
p6827
I2284
sS'promise'
p6828
I323
sS'incredible'
p6829
I160
sS'incredibly'
p6830
I115
sS'knee'
p6831
I223
sS'twhirl'
p6832
I42
sS"britain's"
p6833
I25
sS'dell'
p6834
I44
sS'turn'
p6835
I719
sS'yum'
p6836
I414
sS'gravy'
p6837
I35
sS'hidden'
p6838
I47
sS'sms'
p6839
I86
sS'smh'
p6840
I118
sS'knit'
p6841
I27
sS'wash'
p6842
I205
sS'wasn'
p6843
I105
sS'doin'
p6844
I382
sS'episode'
p6845
I644
sS'piggy'
p6846
I28
sS'respond'
p6847
I117
sS'disaster'
p6848
I65
sS'pancakes'
p6849
I201
sS'250'
p6850
I37
sS'tops'
p6851
I42
sS'shitty'
p6852
I165
sS'suffering'
p6853
I116
sS'possible'
p6854
I373
sS'possibly'
p6855
I212
sS'unique'
p6856
I62
sS'introduce'
p6857
I46
sS'daisy'
p6858
I55
sS'for'
p6859
I50660
sS'fox'
p6860
I150
sS'fob'
p6861
I55
sS'paypal'
p6862
I47
sS'tear'
p6863
I131
sS'hittin'
p6864
I37
sS'team'
p6865
I665
sS'jammin'
p6866
I43
sS'ipl'
p6867
I106
sS'bloody'
p6868
I420
sS'marvelous'
p6869
I34
sS'positive'
p6870
I322
sS'readers'
p6871
I40
sS'wondering'
p6872
I663
sS'applications'
p6873
I44
sS'hiring'
p6874
I32
sS'feelin'
p6875
I308
sS'potter'
p6876
I134
sS'mucho'
p6877
I43
sS'u.'
p6878
I149
sS'suit'
p6879
I97
sS'walking'
p6880
I445
sS'pinkberry'
p6881
I26
sS'up'
p6882
I20773
sS'uh'
p6883
I302
sS'yelled'
p6884
I39
sS'vacation'
p6885
I496
sS'rooting'
p6886
I47
sS'skies'
p6887
I77
sS'tube'
p6888
I61
sS'image'
p6889
I126
sS'freaked'
p6890
I52
sS'entirely'
p6891
I58
sS'comment/make'
p6892
I34
sS'condition'
p6893
I43
sS'sync'
p6894
I48
sS'hours'
p6895
I3120
sS'tomoz'
p6896
I67
sS'indoors'
p6897
I75
sS'keeping'
p6898
I363
sS'science'
p6899
I259
sS'sense'
p6900
I353
sS'mexican'
p6901
I107
sS'grade'
p6902
I144
sS'travelling'
p6903
I54
sS'missed'
p6904
I2330
sS'misses'
p6905
I244
sS'spock'
p6906
I42
sS'marriage'
p6907
I74
sS'impact'
p6908
I31
sS'failed'
p6909
I295
sS'?'
p6910
I37010
sS'nope'
p6911
I628
sS'hottie'
p6912
I30
sS'whole'
p6913
I1395
sS'leon'
p6914
I54
sS'technical'
p6915
I52
sS'recent'
p6916
I95
sS'regretting'
p6917
I37
sS'cannes'
p6918
I42
sS'mysql'
p6919
I41
sS"b'"
p6920
I25
sS'b-'
p6921
I114
sS'b.'
p6922
I40
sS'b)'
p6923
I27
sS'b4'
p6924
I266
sS'b?'
p6925
I27
sS'be'
p6926
I25920
sS'bf'
p6927
I276
sS'bg'
p6928
I53
sS'ba'
p6929
I63
sS'bb'
p6930
I250
sS'bc'
p6931
I197
sS'bn'
p6932
I32
sS'bo'
p6933
I31
sS'bi'
p6934
I25
sS'bk'
p6935
I101
sS'bt'
p6936
I105
sS'bu'
p6937
I25
sS'bs'
p6938
I50
sS'by'
p6939
I5991
sS'relaxed'
p6940
I71
sS'hells'
p6941
I29
sS'hella'
p6942
I167
sS'lyrics'
p6943
I135
sS'dislike'
p6944
I67
sS'twins'
p6945
I94
sS'bird'
p6946
I260
sS'drill'
p6947
I33
sS'bend'
p6948
I30
sS'allow'
p6949
I108
sS'designs'
p6950
I70
sS'shucks'
p6951
I47
sS'tomato'
p6952
I65
sS'megan'
p6953
I81
sS'spelled'
p6954
I49
sS'manchester'
p6955
I172
sS'spammers'
p6956
I65
sS'figured'
p6957
I263
sS'chosen'
p6958
I37
sS'figures'
p6959
I48
sS'solve'
p6960
I40
sS'2010'
p6961
I119
sS'php'
p6962
I50
sS'bananas'
p6963
I43
sS'replacement'
p6964
I54
sS'pillows'
p6965
I29
sS'avoid'
p6966
I120
sS'naturally'
p6967
I43
sS'count'
p6968
I291
sS'smooth'
p6969
I75
sS'hilarious'
p6970
I387
sS'manic'
p6971
I30
sS'29th'
p6972
I45
sS'aku'
p6973
I38
sS'ako'
p6974
I86
sS'aka'
p6975
I140
sS'fudge'
p6976
I39
sS'chilled'
p6977
I59
sS'chillen'
p6978
I46
sS'wknd'
p6979
I102
sS'greet'
p6980
I60
sS'greek'
p6981
I79
sS'green'
p6982
I622
sS'somewhere'
p6983
I407
sS'then'
p6984
I8167
sS'them'
p6985
I5316
sS'thee'
p6986
I82
sS'they'
p6987
I7901
sS'ther'
p6988
I27
sS'organize'
p6989
I36
sS'juss'
p6990
I41
sS'lemonade'
p6991
I39
sS'jerry'
p6992
I35
sS'thx'
p6993
I796
sS'tht'
p6994
I160
sS'the'
p6995
I103278
sS'tha'
p6996
I185
sS'purple'
p6997
I163
sS'sanctuarysunday'
p6998
I25
sS'overslept'
p6999
I54
sS'painting'
p7000
I240
sS'blimey'
p7001
I26
sS'p'
p7002
I103
sS'revolution'
p7003
I33
sS'bold'
p7004
I59
sS'rarely'
p7005
I55
sS'towers'
p7006
I39
sS'spy'
p7007
I36
sS'7pm'
p7008
I53
sS'spa'
p7009
I65
sS'rather'
p7010
I745
sS'indeed'
p7011
I522
sS'concerts'
p7012
I80
sS'fired'
p7013
I50
sS'fires'
p7014
I27
sS'promotion'
p7015
I47
sS'size'
p7016
I222
sS'mostly'
p7017
I233
sS"everything's"
p7018
I28
sS'husband'
p7019
I351
sS'concert'
p7020
I1061
sS'voicemail'
p7021
I25
sS'comes'
p7022
I790
sS'developing'
p7023
I41
sS'media'
p7024
I287
sS'fruit'
p7025
I160
sS'iphones'
p7026
I27
sS'struck'
p7027
I31
sS'pounds'
p7028
I109
sS'central'
p7029
I115
sS'trying'
p7030
I2819
sS'bucket'
p7031
I33
sS'moved'
p7032
I261
sS'polar'
p7033
I27
sS'strings'
p7034
I37
sS'colored'
p7035
I31
sS'heartbroken'
p7036
I35
sS'disgusting'
p7037
I66
sS'broke'
p7038
I779
sS'fr'
p7039
I58
sS'ft'
p7040
I50
sS'fu'
p7041
I36
sS'fa'
p7042
I65
sS'fc'
p7043
I41
sS'ff'
p7044
I367
sS'fi'
p7045
I36
sS'fl'
p7046
I99
sS'fm'
p7047
I99
sS'fo'
p7048
I100
sS'slacking'
p7049
I31
sS'scaring'
p7050
I30
sS'fully'
p7051
I145
sS"isn't"
p7052
I1415
sS'neil'
p7053
I39
sS'robert'
p7054
I101
sS'dirt'
p7055
I45
sS'kindle'
p7056
I28
sS'quote'
p7057
I281
sS'shoutout'
p7058
I57
sS'meanwhile'
p7059
I36
sS'famous'
p7060
I218
sS'perfume'
p7061
I25
sS'piss'
p7062
I88
sS'buzz'
p7063
I63
sS'chronicles'
p7064
I48
sS'nvm'
p7065
I31
sS'tiring'
p7066
I89
sS'signal'
p7067
I50
sS'faith'
p7068
I129
sS'seeing'
p7069
I1112
sS'himself'
p7070
I152
sS"she'd"
p7071
I38
sS"she's"
p7072
I812
sS'claim'
p7073
I52
sS'excellent'
p7074
I361
sS'donut'
p7075
I32
sS'ricky'
p7076
I60
sS'stayin'
p7077
I32
sS'drowning'
p7078
I36
sS'fuzzy'
p7079
I44
sS'herself'
p7080
I127
sS'photograph'
p7081
I26
sS'border'
p7082
I29
sS'african'
p7083
I26
sS'montana'
p7084
I289
sS'envy'
p7085
I92
sS'ethan'
p7086
I26
sS'120'
p7087
I32
sS'12:'
p7088
I31
sS'prayers'
p7089
I169
sS'luv'
p7090
I544
sS'joys'
p7091
I68
sS'flicks'
p7092
I31
sS'flickr'
p7093
I141
sS'crackberry'
p7094
I25
sS'jersey'
p7095
I162
sS'ours'
p7096
I99
sS'novel'
p7097
I71
sS'sarcastic'
p7098
I34
sS'i'
p7099
I127875
sS'headin'
p7100
I67
sS'nate'
p7101
I38
sS'sissy'
p7102
I40
sS'final'
p7103
I816
sS'thnks'
p7104
I29
sS'twist'
p7105
I53
sS'blogs'
p7106
I111
sS'solution'
p7107
I102
sS'boohoo'
p7108
I43
sS'cindy'
p7109
I28
sS'county'
p7110
I68
sS'tweeps'
p7111
I354
sS'recommend'
p7112
I195
sS'type'
p7113
I361
sS'posting'
p7114
I218
sS'keyboard'
p7115
I157
sS'acoustic'
p7116
I91
sS'dawn'
p7117
I127
sS'surprise'
p7118
I275
sS'girly'
p7119
I67
sS'amsterdam'
p7120
I116
sS'niece'
p7121
I110
sS'medical'
p7122
I52
sS'points'
p7123
I226
sS'sorta'
p7124
I82
sS"there's"
p7125
I920
sS'sorts'
p7126
I42
sS'tank'
p7127
I91
sS'chilling'
p7128
I233
sS'jealous'
p7129
I788
sS'rome'
p7130
I67
sS'ciara'
p7131
I27
sS'tmrw'
p7132
I148
sS'dunkin'
p7133
I48
sS'islands'
p7134
I26
sS'negative'
p7135
I71
sS'form'
p7136
I212
sS'ford'
p7137
I42
sS'fort'
p7138
I45
sS'shit'
p7139
I1520
sS'digital'
p7140
I99
sS'laura'
p7141
I102
sS'yummy'
p7142
I625
sS'yummm'
p7143
I65
sS'travels'
p7144
I41
sS'shave'
p7145
I60
sS'schoool'
p7146
I82
sS'heres'
p7147
I38
sS'zombie'
p7148
I86
sS'thru'
p7149
I289
sS'ooo'
p7150
I327
sS'ooh'
p7151
I411
sS'grow'
p7152
I208
sS'chef'
p7153
I63
sS'jail'
p7154
I52
sS'underwear'
p7155
I30
sS'coconut'
p7156
I36
sS'rehearsals'
p7157
I26
sS'pain'
p7158
I919
sS'paid'
p7159
I321
sS'salon'
p7160
I59
sS'j.'
p7161
I36
sS'behind'
p7162
I498
sS'jt'
p7163
I53
sS'jp'
p7164
I31
sS'jr'
p7165
I66
sS'js'
p7166
I37
sS'jk'
p7167
I258
sS'jd'
p7168
I39
sS'je'
p7169
I37
sS'jg'
p7170
I36
sS'ja'
p7171
I37
sS'rugby'
p7172
I77
sS'barry'
p7173
I37
sS'borders'
p7174
I30
sS'offered'
p7175
I59
sS'amazed'
p7176
I89
sS'asthma'
p7177
I26
sS'shelter'
p7178
I27
sS'fall'
p7179
I724
sS'mothers'
p7180
I1707
sS'reminding'
p7181
I69
sS'material'
p7182
I58
sS'subscirbeee'
p7183
I34
sS'airport'
p7184
I547
sS'purchased'
p7185
I35
sS':):)'
p7186
I36
sS'par'
p7187
I27
sS'late'
p7188
I2188
sS'dolls'
p7189
I56
sS'uhh'
p7190
I64
sS'twenty'
p7191
I36
sS'paint'
p7192
I192
sS'pains'
p7193
I83
sS'b'
p7194
I876
sS'thomas'
p7195
I77
sS'poppin'
p7196
I44
sS'courage'
p7197
I26
sS'degree'
p7198
I123
sS'alot'
p7199
I403
sS'secret'
p7200
I252
sS'fur'
p7201
I29
sS'survivor'
p7202
I53
sS'fun'
p7203
I6997
sS'assignment'
p7204
I238
sS'hows'
p7205
I267
sS'mom'
p7206
I2311
sS'hated'
p7207
I81
sS'mavs'
p7208
I52
sS'hates'
p7209
I423
sS'hater'
p7210
I27
sS'back'
p7211
I13393
sS'8pm'
p7212
I68
sS'midterm'
p7213
I31
sS'giving'
p7214
I494
sS'named'
p7215
I146
sS'names'
p7216
I165
sS'praise'
p7217
I76
sS'winners'
p7218
I39
sS'fran'
p7219
I41
sS'bothered'
p7220
I141
sS'bunch'
p7221
I295
sS'attend'
p7222
I132
sS"mommy's"
p7223
I76
sS'wrist'
p7224
I79
sS'monkey'
p7225
I119
sS'w/'
p7226
I1079
sS'lions'
p7227
I25
sS'tidy'
p7228
I76
sS'comfortable'
p7229
I79
sS'gravity'
p7230
I45
sS'comment'
p7231
I494
sS'teasing'
p7232
I34
sS'arghh'
p7233
I32
sS'pouring'
p7234
I126
sS'usual'
p7235
I432
sS'slight'
p7236
I57
sS'!"'
p7237
I402
sS"!'"
p7238
I38
sS'!)'
p7239
I401
sS'!*'
p7240
I40
sS'!,'
p7241
I61
sS'!?'
p7242
I420
sS':d:d'
p7243
I47
sS'!]'
p7244
I39
sS'bundle'
p7245
I26
sS'baked'
p7246
I101
sS'beaten'
p7247
I30
sS'feelings'
p7248
I113
sS'unloved'
p7249
I38
sS'shoot'
p7250
I447
sS'mess'
p7251
I283
sS'biting'
p7252
I30
sS'twas'
p7253
I64
sS'coding'
p7254
I60
sS'expo'
p7255
I50
sS'lbs'
p7256
I43
sS'treats'
p7257
I43
sS'flow'
p7258
I50
sS'inspire'
p7259
I34
sS'sunglasses'
p7260
I72
sS'countries'
p7261
I32
sS'nut'
p7262
I63
sS'boss'
p7263
I260
sS'lenses'
p7264
I27
sS'linked'
p7265
I47
sS'clubs'
p7266
I41
sS'26th'
p7267
I39
sS'knees'
p7268
I79
sS'nh'
p7269
I42
sS'nj'
p7270
I57
sS'nk'
p7271
I27
sS'nm'
p7272
I41
sS'no'
p7273
I15427
sS'na'
p7274
I345
sS'nc'
p7275
I80
sS'nd'
p7276
I181
sS'ne'
p7277
I90
sS'ny'
p7278
I284
sS'nz'
p7279
I78
sS'np'
p7280
I56
sS'nt'
p7281
I60
sS'nu'
p7282
I44
sS'nw'
p7283
I46
sS"n'"
p7284
I34
sS'particular'
p7285
I59
sS'/'
p7286
I970
sS'hairy'
p7287
I27
sS'['
p7288
I565
sS'dublin'
p7289
I92
sS'weird'
p7290
I727
sS'riot'
p7291
I31
sS'laughter'
p7292
I68
sS'performed'
p7293
I38
sS'swedish'
p7294
I58
sS'possibilities'
p7295
I27
sS'awfully'
p7296
I29
sS'dissapointed'
p7297
I61
sS'pre'
p7298
I75
sS'pro'
p7299
I223
sS'penguins'
p7300
I40
sS'picnic'
p7301
I132
sS'recital'
p7302
I44
sS'model'
p7303
I186
sS'modem'
p7304
I32
sS'easily'
p7305
I132
sS'cba'
p7306
I52
sS'included'
p7307
I62
sS'curve'
p7308
I39
sS'follow'
p7309
I3180
sS'ringing'
p7310
I44
sS'might'
p7311
I2173
sS'nephews'
p7312
I32
sS'thrown'
p7313
I49
sS'throws'
p7314
I34
sS'blank'
p7315
I49
sS"i'ma"
p7316
I38
sS'appear'
p7317
I104
sS'stones'
p7318
I43
sS'bff'
p7319
I196
sS'2.5'
p7320
I57
sS'korea'
p7321
I53
sS'recently'
p7322
I197
sS'reasons'
p7323
I126
sS'duh'
p7324
I88
sS'dun'
p7325
I77
sS'due'
p7326
I677
sS'strategy'
p7327
I42
sS'woke'
p7328
I2077
sS'ages'
p7329
I323
sS'mountain'
p7330
I129
sS'lappy'
p7331
I34
sS'sonny'
p7332
I64
sS'fries'
p7333
I90
sS'grr'
p7334
I154
sS'gr8'
p7335
I193
sS'steve'
p7336
I154
sS'issues'
p7337
I270
sS'hardest'
p7338
I78
sS'sexy'
p7339
I420
sS'use'
p7340
I1942
sS'usb'
p7341
I82
sS'usa'
p7342
I180
sS'musician'
p7343
I49
sS'infection'
p7344
I130
sS'distractions'
p7345
I31
sS'freezer'
p7346
I40
sS'tyler'
p7347
I49
sS'molly'
p7348
I43
sS"god's"
p7349
I53
sS'academy'
p7350
I44
sS'slides'
p7351
I31
sS'looked'
p7352
I532
sS'hmm'
p7353
I715
sS'cried'
p7354
I252
sS'cries'
p7355
I69
sS"who's"
p7356
I279
sS'perks'
p7357
I26
sS'mraz'
p7358
I47
sS'xoxox'
p7359
I68
sS'liquor'
p7360
I34
sS'blown'
p7361
I74
sS'album'
p7362
I705
sS'l\xc3\xa0'
p7363
I47
sS'irony'
p7364
I31
sS':(:('
p7365
I40
sS'cara'
p7366
I26
sS'strike'
p7367
I78
sS'feature'
p7368
I131
sS'cigarettes'
p7369
I32
sS'rt'
p7370
I6303
sS'rd'
p7371
I41
sS're'
p7372
I523
sS'rb'
p7373
I42
sS'rc'
p7374
I54
sS'tempting'
p7375
I50
sS'addict'
p7376
I57
sS'meetings'
p7377
I122
sS'pocket'
p7378
I93
sS'arghhh'
p7379
I60
sS"?'"
p7380
I40
sS'logie'
p7381
I25
sS'login'
p7382
I52
sS'argue'
p7383
I31
sS'advert'
p7384
I33
sS'ridiculously'
p7385
I54
sS'electro'
p7386
I36
sS'military'
p7387
I25
sS'sleeps'
p7388
I89
sS'sleepy'
p7389
I679
sS'miranda'
p7390
I25
sS'loads'
p7391
I350
sS'spiritual'
p7392
I27
sS'melt'
p7393
I47
sS'maine'
p7394
I51
sS'melb'
p7395
I35
sS'jury'
p7396
I35
sS'tasks'
p7397
I42
sS'edinburgh'
p7398
I66
sS'natural'
p7399
I93
sS'twilight'
p7400
I428
sS'omfg'
p7401
I116
sS'crawfish'
p7402
I27
sS'screen'
p7403
I336
sS'blame'
p7404
I243
sS'cramps'
p7405
I52
sS'gimme'
p7406
I46
sS'survived'
p7407
I89
sS'october'
p7408
I82
sS'twibe'
p7409
I35
sS'cable'
p7410
I152
sS'large'
p7411
I151
sS'legend'
p7412
I75
sS'tomoro'
p7413
I57
sS'420'
p7414
I103
sS'mower'
p7415
I27
sS'scan'
p7416
I44
sS'suggestions'
p7417
I186
sS'register'
p7418
I58
sS'volleyball'
p7419
I55
sS'upstairs'
p7420
I47
sS'listen'
p7421
I880
sS'plurk'
p7422
I84
sS'internal'
p7423
I29
sS'golf'
p7424
I178
sS'gold'
p7425
I182
sS'heyyy'
p7426
I147
sS'monsters'
p7427
I67
sS'available'
p7428
I307
sS'incident'
p7429
I47
sS'):'
p7430
I86
sS'),'
p7431
I241
sS'church'
p7432
I1143
sS')!'
p7433
I51
sS'resting'
p7434
I86
sS'squirrel'
p7435
I30
sS'straight'
p7436
I342
sS'courtney'
p7437
I28
sS'dating'
p7438
I59
sS'victoria'
p7439
I108
sS'hometown'
p7440
I37
sS'poster'
p7441
I100
sS'posted'
p7442
I492
sS'viral'
p7443
I27
sS'scratch'
p7444
I104
sS'young'
p7445
I358
sS'mixing'
p7446
I36
sS'magic'
p7447
I297
sS'eve'
p7448
I89
sS'spaghetti'
p7449
I36
sS'richmond'
p7450
I44
sS'shaundiviney'
p7451
I33
sS'punch'
p7452
I77
sS'chocolates'
p7453
I36
sS'throw'
p7454
I244
sS'challenge'
p7455
I154
sS'mommas'
p7456
I39
sS'counter'
p7457
I37
sS'docs'
p7458
I68
sS'system'
p7459
I262
sS'gotcha'
p7460
I42
sS'depressing'
p7461
I235
sS"can't."
p7462
I52
sS'vaca'
p7463
I37
sS';-)'
p7464
I303
sS';-p'
p7465
I26
sS'handle'
p7466
I207
sS'smash'
p7467
I27
sS'britains'
p7468
I49
sS've'
p7469
I44
sS'vi'
p7470
I30
sS'hardware'
p7471
I26
sS'android'
p7472
I44
sS'dan'
p7473
I172
sS'v.'
p7474
I76
sS'drawing'
p7475
I121
sS'government'
p7476
I66
sS'password'
p7477
I87
sS'pussy'
p7478
I25
sS'convince'
p7479
I89
sS'ink'
p7480
I50
sS'ing'
p7481
I83
sS'inc'
p7482
I30
sS'ghost'
p7483
I97
sS'jacob'
p7484
I52
sS'chew'
p7485
I27
sS'specs'
p7486
I25
sS'bangkok'
p7487
I27
sS'highly'
p7488
I99
sS'logo'
p7489
I100
sS'medicine'
p7490
I97
sS'standard'
p7491
I63
sS'realy'
p7492
I58
sS"'d"
p7493
I337
sS'responded'
p7494
I49
sS'enjoyed'
p7495
I586
sS'hrs'
p7496
I397
sS'lovee'
p7497
I59
sS'nasty'
p7498
I192
sS'unable'
p7499
I82
sS'lover'
p7500
I84
sS'applied'
p7501
I70
sS'l8r'
p7502
I27
sS'boxes'
p7503
I102
sS'filming'
p7504
I85
sS'pose'
p7505
I26
sS'post'
p7506
I1441
sS'float'
p7507
I26
sS'wah'
p7508
I77
sS'way'
p7509
I5880
sS'wat'
p7510
I312
sS'was'
p7511
I22495
sS'war'
p7512
I148
sS'becoming'
p7513
I143
sS'yuck'
p7514
I138
sS'brothers'
p7515
I426
sS'certainly'
p7516
I233
sS'fog'
p7517
I39
sS'uniform'
p7518
I33
sS'usually'
p7519
I412
sS'quizzes'
p7520
I30
sS'graphic'
p7521
I58
sS'revenge'
p7522
I57
sS'pills'
p7523
I63
sS'sneak'
p7524
I61
sS'argh'
p7525
I339
sS'directly'
p7526
I60
sS'weds'
p7527
I40
sS'tragic'
p7528
I39
sS'slap'
p7529
I62
sS'slam'
p7530
I30
sS'german'
p7531
I216
sS'help'
p7532
I2626
sS'only'
p7533
I6439
sS'ffs'
p7534
I42
sS'routine'
p7535
I69
sS'soon'
p7536
I4276
sS'cannot'
p7537
I605
sS'icarly'
p7538
I42
sS'losers'
p7539
I26
sS'informed'
p7540
I57
sS'these'
p7541
I1568
sS'aaargh'
p7542
I25
sS'numb'
p7543
I39
sS'orientation'
p7544
I26
sS'figuring'
p7545
I77
sS'closest'
p7546
I38
sS'spectacular'
p7547
I45
sS'rebecca'
p7548
I39
sS'miracle'
p7549
I55
sS'wheat'
p7550
I28
sS'tweetie'
p7551
I260
sS'peak'
p7552
I36
sS'->'
p7553
I120
sS'iraq'
p7554
I36
sS'vegetarian'
p7555
I37
sS'family'
p7556
I1799
sS'cupcake'
p7557
I80
sS'wolverine'
p7558
I470
sS'blush'
p7559
I38
sS'knocking'
p7560
I26
sS'arsenal'
p7561
I76
sS'wonderful'
p7562
I1196
sS'selling'
p7563
I140
sS'noone'
p7564
I85
sS'recommendations'
p7565
I91
sS'conditions'
p7566
I25
sS'experiencing'
p7567
I25
sS'exercising'
p7568
I25
sS'wings'
p7569
I127
sS'within'
p7570
I126
sS'great'
p7571
I9203
sS'larry'
p7572
I51
sS'katy'
p7573
I83
sS'kate'
p7574
I128
sS'cheeky'
p7575
I45
sS'blessings'
p7576
I91
sS'hands'
p7577
I401
sS'handy'
p7578
I67
sS'crossing'
p7579
I74
sS'700'
p7580
I29
sS'70s'
p7581
I30
sS'long'
p7582
I4120
sS'annnd'
p7583
I27
sS'rss'
p7584
I59
sS'tbh'
p7585
I94
sS'ughh'
p7586
I147
sS'humans'
p7587
I40
sS'admin'
p7588
I54
sS'presentations'
p7589
I27
sS'admit'
p7590
I180
sS'invisible'
p7591
I35
sS'demo'
p7592
I87
sS'demi'
p7593
I309
sS'shooting'
p7594
I152
sS'allergies'
p7595
I210
sS'spree'
p7596
I30
sS'mistaken'
p7597
I29
sS'mistakes'
p7598
I56
sS'noah'
p7599
I27
sS'livin'
p7600
I29
sS'peter'
p7601
I110
sS'freedom'
p7602
I104
sS'goals'
p7603
I56
sS'friends'
p7604
I3322
sS'asian'
p7605
I78
sS'sermon'
p7606
I27
sS'iya'
p7607
I27
sS'baking'
p7608
I110
sS'lungs'
p7609
I31
sS'wars'
p7610
I319
sS'warm'
p7611
I632
sS'ward'
p7612
I28
sS'becky'
p7613
I34
sS'attempt'
p7614
I139
sS'weeks'
p7615
I1484
sS'sleepless'
p7616
I52
sS'side'
p7617
I750
sS'venue'
p7618
I65
sS'stealing'
p7619
I52
sS'boarding'
p7620
I52
sS'doh'
p7621
I56
sS'don'
p7622
I1601
sS'doo'
p7623
I57
sS'doc'
p7624
I137
sS'alarm'
p7625
I238
sS'dog'
p7626
I1116
sS'dot'
p7627
I60
sS'folks'
p7628
I324
sS'coast'
p7629
I221
sS'juliet'
p7630
I28
sS'nicer'
p7631
I84
sS'personally'
p7632
I104
sS'make'
p7633
I5811
sS'unfortunate'
p7634
I48
sS'delight'
p7635
I26
sS'opportunity'
p7636
I93
sS'butter'
p7637
I187
sS'dreamt'
p7638
I48
sS'dreams'
p7639
I789
sS'failure'
p7640
I74
sS'delivered'
p7641
I68
sS'countdown'
p7642
I79
sS'achy'
p7643
I26
sS'shift'
p7644
I264
sS'neck'
p7645
I248
sS'safari'
p7646
I67
sS'dutch'
p7647
I72
sS'brooke'
p7648
I43
sS'headphones'
p7649
I76
sS".'"
p7650
I51
sS'broadcast'
p7651
I51
sS'butt'
p7652
I224
sS'11'
p7653
I467
sS'10'
p7654
I1350
sS'13'
p7655
I238
sS'12'
p7656
I672
sS'15'
p7657
I522
sS'14'
p7658
I257
sS'17'
p7659
I389
sS'16'
p7660
I252
sS'18'
p7661
I262
sS'1:'
p7662
I52
sS'1!'
p7663
I34
sS'1)'
p7664
I33
sS'1,'
p7665
I78
sS'allison'
p7666
I68
sS"mama's"
p7667
I39
sS'sleepin'
p7668
I50
sS'workshop'
p7669
I73
sS'friendster'
p7670
I43
sS'urself'
p7671
I57
sS'wellington'
p7672
I25
sS'ugggh'
p7673
I26
sS'file'
p7674
I119
sS'film'
p7675
I549
sS'fill'
p7676
I126
sS'oral'
p7677
I55
sS'dollar'
p7678
I78
sS'difference'
p7679
I177
sS'public'
p7680
I233
sS'fred'
p7681
I46
sS'jackie'
p7682
I46
sS'texting'
p7683
I149
sS'crowded'
p7684
I29
sS'todayyy'
p7685
I45
sS'hard'
p7686
I2142
sS'computers'
p7687
I80
sS'least'
p7688
I1883
sS'182'
p7689
I36
sS'doctors'
p7690
I151
sS'most'
p7691
I2005
sS'8'
p7692
I735
sS'retweet'
p7693
I249
sS'pepsi'
p7694
I42
sS'purse'
p7695
I62
sS'simple'
p7696
I360
sS'simply'
p7697
I168
sS'swiss'
p7698
I26
sS'distracting'
p7699
I36
sS'wil'
p7700
I52
sS'judgement'
p7701
I29
sS'jewelry'
p7702
I32
sS'oatmeal'
p7703
I51
sS'remains'
p7704
I30
sS'fallin'
p7705
I25
sS'ontario'
p7706
I27
sS'single'
p7707
I431
sS'crossed'
p7708
I235
sS'exchange'
p7709
I84
sS'doom'
p7710
I28
sS'sons'
p7711
I42
sS'boxing'
p7712
I42
sS'l?i'
p7713
I32
sS'bueno'
p7714
I67
sS'junkie'
p7715
I28
sS'jessica'
p7716
I69
sS'ancient'
p7717
I30
sS'congrats'
p7718
I977
sS'sally'
p7719
I34
sS'staff'
p7720
I92
sS'grabbed'
p7721
I31
sS'awaits'
p7722
I36
sS'wembley'
p7723
I39
sS'plugin'
p7724
I49
sS'faces'
p7725
I126
sS'sunburn'
p7726
I106
sS'muscle'
p7727
I69
sS'ads'
p7728
I127
sS'add'
p7729
I851
sS'ada'
p7730
I46
sS'italian'
p7731
I147
sS'proper'
p7732
I166
sS"school's"
p7733
I25
sS'shaking'
p7734
I60
sS'under'
p7735
I649
sS'jack'
p7736
I249
sS'monkeys'
p7737
I33
sS'ultimate'
p7738
I63
sS'stereo'
p7739
I34
sS'waffle'
p7740
I38
sS'management'
p7741
I96
sS'toy'
p7742
I111
sS'top'
p7743
I847
sS'tow'
p7744
I30
sS'ton'
p7745
I108
sS'tom'
p7746
I466
sS'longgg'
p7747
I41
sS'plenty'
p7748
I156
sS'man'
p7749
I3120
sS'announce'
p7750
I44
sS'watch'
p7751
I3636
sS'amazon'
p7752
I127
sS'nurse'
p7753
I53
sS'yday'
p7754
I36
sS'expected'
p7755
I186
sS'joined'
p7756
I302
sS'dept'
p7757
I25
sS'stopping'
p7758
I78
sS'pics'
p7759
I1066
sS'suggest'
p7760
I133
sS'action'
p7761
I203
sS'dylan'
p7762
I42
sS'mother'
p7763
I615
sS'5k'
p7764
I46
sS'5:'
p7765
I45
sS'55'
p7766
I35
sS'56'
p7767
I27
sS'50'
p7768
I310
sS'5,'
p7769
I56
sS'5.'
p7770
I75
sS'tutorial'
p7771
I52
sS'discount'
p7772
I59
sS'p.s.'
p7773
I167
sS'guest'
p7774
I111
sS'git'
p7775
I32
sS'gig'
p7776
I332
sS'ruined'
p7777
I180
sS'reminiscing'
p7778
I28
sS'shines'
p7779
I35
sS'sql'
p7780
I27
sS'promoting'
p7781
I34
sS'peeps'
p7782
I365
sS'guilty'
p7783
I153
sS'('
p7784
I10355
sS'rafael'
p7785
I35
sS'sports'
p7786
I157
sS'counting'
p7787
I196
sS'1'
p7788
I1870
sS'hihi'
p7789
I38
sS'bestest'
p7790
I68
sS'place'
p7791
I1530
sS'engineer'
p7792
I29
sS'given'
p7793
I262
sS'returns'
p7794
I45
sS'gives'
p7795
I236
sS'releases'
p7796
I26
sS'alan'
p7797
I46
sS'released'
p7798
I140
sS'alas'
p7799
I141
sS'desperate'
p7800
I185
sS'chloe'
p7801
I48
sS'adopt'
p7802
I36
sS'connections'
p7803
I38
sS'afterwards'
p7804
I105
sS'myself'
p7805
I2161
sS'retweeting'
p7806
I59
sS'magical'
p7807
I55
sS'accepted'
p7808
I71
sS'depot'
p7809
I25
sS'chinese'
p7810
I297
sS"danny's"
p7811
I34
sS'disc'
p7812
I50
sS'dish'
p7813
I65
sS'disk'
p7814
I43
sS'overload'
p7815
I32
sS'racing'
p7816
I72
sS'knows'
p7817
I495
sS'known'
p7818
I195
sS'eden'
p7819
I26
sS'explains'
p7820
I43
sS'w'
p7821
I311
sS'resort'
p7822
I38
sS'marcus'
p7823
I29
sS'colder'
p7824
I25
sS'mates'
p7825
I127
sS'cookie'
p7826
I136
sS'heads'
p7827
I149
sS'outdoors'
p7828
I35
sS'jst'
p7829
I111
sS'nothing'
p7830
I2426
sS'discuss'
p7831
I52
sS'rave'
p7832
I27
sS'rocking'
p7833
I102
sS'peoples'
p7834
I102
sS'literature'
p7835
I33
sS'chickens'
p7836
I32
sS'workers'
p7837
I29
sS'customers'
p7838
I72
sS'essential'
p7839
I25
sS'delta'
p7840
I30
sS'freak'
p7841
I127
sS'missin'
p7842
I134
sS'remix'
p7843
I88
sS'beers'
p7844
I76
sS'cuppa'
p7845
I75
sS'smaller'
p7846
I55
sS'hahahahaha'
p7847
I32
sS'anywhere'
p7848
I286
sS'abuse'
p7849
I35
sS'quake'
p7850
I59
sS'flew'
p7851
I71
sS'flea'
p7852
I32
sS'rockets'
p7853
I64
sS'related'
p7854
I150
sS'heartbreaking'
p7855
I27
sS'their'
p7856
I1903
sS'shell'
p7857
I51
sS'shelf'
p7858
I30
sS'which'
p7859
I1772
sS'twitting'
p7860
I67
sS'piano'
p7861
I128
sS'awwh'
p7862
I43
sS'awww'
p7863
I1680
sS'chips'
p7864
I164
sS'mike'
p7865
I170
sS'inch'
p7866
I48
sS'student'
p7867
I178
sS'carrie'
p7868
I29
sS'exciting'
p7869
I576
sS'below'
p7870
I54
sS'msgs'
p7871
I31
sS'snowing'
p7872
I87
sS'reports'
p7873
I84
sS'iloveyou'
p7874
I43
sS'passport'
p7875
I54
sS'9.'
p7876
I41
sS'brings'
p7877
I187
sS'99'
p7878
I73
sS'9:'
p7879
I32
sS'90'
p7880
I112
sS'95'
p7881
I37
sS'97'
p7882
I25
sS'reviewing'
p7883
I30
sS'feedback'
p7884
I154
sS'funnn'
p7885
I51
sS'addicted'
p7886
I242
sS'ofcourse'
p7887
I39
sS'tango'
p7888
I35
sS'poisoning'
p7889
I50
sS'2nd'
p7890
I493
sS'100'
p7891
I583
sS'eastern'
p7892
I42
sS'remembering'
p7893
I67
sS'shipwrecked'
p7894
I27
sS'greys'
p7895
I46
sS'remind'
p7896
I140
sS'private'
p7897
I138
sS'battlefield'
p7898
I30
sS'old'
p7899
I2687
sS'ole'
p7900
I46
sS'witty'
p7901
I32
sS'jane'
p7902
I55
sS'everrr'
p7903
I38
sS'happpy'
p7904
I31
sS'printing'
p7905
I50
sS'nascar'
p7906
I39
sS'naked'
p7907
I129
sS'quite'
p7908
I1203
sS'punk'
p7909
I61
sS'specifically'
p7910
I32
sS'woah'
p7911
I114
sS'foward'
p7912
I31
sS'outlet'
p7913
I27
sS'jumped'
p7914
I83
sS'coughing'
p7915
I125
sS'blah'
p7916
I309
sS'fame'
p7917
I46
sS'thinkin'
p7918
I134
sS'stranger'
p7919
I47
sS'23rd'
p7920
I49
sS'robots'
p7921
I25
sS'defo'
p7922
I54
sS'someones'
p7923
I57
sS'gifts'
p7924
I78
sS'hunting'
p7925
I110
sS'brutal'
p7926
I49
sS'via'
p7927
I861
sS'vid'
p7928
I272
sS'vip'
p7929
I66
sS'plans'
p7930
I584
sS'plane'
p7931
I282
sS'bowl'
p7932
I141
sS'alll'
p7933
I164
sS'ally'
p7934
I27
sS'all-'
p7935
I27
sS'england'
p7936
I250
sS'mums'
p7937
I126
sS'tonite'
p7938
I242
sS'ftw'
p7939
I214
sS'kobe'
p7940
I48
sS'hott'
p7941
I53
sS'stairs'
p7942
I82
sS'assume'
p7943
I59
sS'auditions'
p7944
I35
sS'sayin'
p7945
I103
sS'approaching'
p7946
I26
sS'#'
p7947
I8140
sS'movie'
p7948
I2738
sS'interface'
p7949
I51
sS'barely'
p7950
I234
sS"we've"
p7951
I197
sS'coincidence'
p7952
I35
sS'scottish'
p7953
I39
sS'sammy'
p7954
I30
sS'mind'
p7955
I1191
sS'backing'
p7956
I34
sS'viewing'
p7957
I42
sS'picks'
p7958
I41
sS'quest'
p7959
I51
sS'religion'
p7960
I53
sS'nowhere'
p7961
I140
sS'aswell'
p7962
I135
sS'likewise'
p7963
I34
sS'concerned'
p7964
I62
sS'explain'
p7965
I181
sS'zip'
p7966
I25
sS'pieces'
p7967
I96
sS'tied'
p7968
I49
sS'pigs'
p7969
I59
sS'22nd'
p7970
I42
sS'society'
p7971
I109
sS'visa'
p7972
I51
sS'stronger'
p7973
I49
sS'=p'
p7974
I136
sS'=d'
p7975
I195
sS'=]'
p7976
I115
sS'=['
p7977
I31
sS'=>'
p7978
I39
sS'=/'
p7979
I113
sS'=)'
p7980
I14657
sS'=('
p7981
I119
sS'graphics'
p7982
I68
sS'python'
p7983
I37
sS'five'
p7984
I277
sS'schedule'
p7985
I196
sS'lastnight'
p7986
I50
sS'errands'
p7987
I99
sS'ughhh'
p7988
I233
sS'website'
p7989
I630
sS'planting'
p7990
I38
sS'monday'
p7991
I2590
sS'blueberry'
p7992
I39
sS'pierced'
p7993
I27
sS'eclipse'
p7994
I59
sS'crackers'
p7995
I32
sS'goood'
p7996
I462
sS'aaaw'
p7997
I35
sS'david'
p7998
I770
sS'lah'
p7999
I40
sS'lad'
p8000
I30
sS'lag'
p8001
I33
sS'lab'
p8002
I158
sS'lax'
p8003
I36
sS'lay'
p8004
I220
sS'lap'
p8005
I69
sS'las'
p8006
I61
sS'belle'
p8007
I27
sS'break'
p8008
I1182
sS'network'
p8009
I179
sS'rated'
p8010
I35
sS'functioning'
p8011
I31
sS'toast'
p8012
I285
sS'throwdown'
p8013
I37
sS'bradiewebb'
p8014
I38
sS'tough'
p8015
I279
sS'relaxing'
p8016
I517
sS'mamma'
p8017
I29
sS"she'll"
p8018
I103
sS'quotes'
p8019
I111
sS'humor'
p8020
I79
sS'4/20'
p8021
I50
sS'marketing'
p8022
I170
sS'pacquiao'
p8023
I68
sS'mtv'
p8024
I79
sS'holding'
p8025
I146
sS'switched'
p8026
I65
sS'somthing'
p8027
I28
sS'3am'
p8028
I143
sS'market'
p8029
I219
sS'>:('
p8030
I37
sS'angela'
p8031
I27
sS'angels'
p8032
I327
sS'sweetie'
p8033
I277
sS'write'
p8034
I950
sS'rly'
p8035
I53
sS'craig'
p8036
I51
sS'leather'
p8037
I47
sS'overrated'
p8038
I34
sS'wheels'
p8039
I41
sS'oliver'
p8040
I32
sS'cycling'
p8041
I54
sS'cares'
p8042
I126
sS'*-*'
p8043
I41
sS'improvement'
p8044
I31
sS'whatcha'
p8045
I41
sS'asap'
p8046
I184
sS'cats'
p8047
I260
sS'messy'
p8048
I75
sS'icons'
p8049
I38
sS'heaven'
p8050
I198
sS"i'll"
p8051
I5980
sS'shuffle'
p8052
I39
sS'relate'
p8053
I46
sS'goodmorning'
p8054
I273
sS'motivated'
p8055
I67
sS'todd'
p8056
I51
sS'rudd'
p8057
I30
sS'performances'
p8058
I30
sS'flights'
p8059
I85
sS'x'
p8060
I2908
sS'angie'
p8061
I34
sS'probably'
p8062
I1549
sS'fiance'
p8063
I30
sS'cleaning'
p8064
I721
sS'database'
p8065
I45
sS'burrito'
p8066
I28
sS'parade'
p8067
I83
sS'raspberry'
p8068
I27
sS'idk'
p8069
I452
sS'frost'
p8070
I25
sS'utd'
p8071
I49
sS'b/c'
p8072
I194
sS'draw'
p8073
I146
sS'william'
p8074
I45
sS'drag'
p8075
I105
sS'facebook'
p8076
I1048
sS'plays'
p8077
I93
sS"weren't"
p8078
I204
sS'stage'
p8079
I232
sS'popped'
p8080
I50
sS'control'
p8081
I203
sS'showering'
p8082
I31
sS'umbrella'
p8083
I72
sS'princess'
p8084
I158
sS'florida'
p8085
I196
sS'evans'
p8086
I28
sS'blogger'
p8087
I51
sS'blogged'
p8088
I27
sS'eachother'
p8089
I34
sS'sipping'
p8090
I40
sS'shake'
p8091
I138
sS'poem'
p8092
I52
sS'shameless'
p8093
I25
sS'harder'
p8094
I147
sS'wks'
p8095
I46
sS'crushed'
p8096
I69
sS'warmer'
p8097
I49
sS'museum'
p8098
I126
sS'updated'
p8099
I282
sS'updates'
p8100
I676
sS'skills'
p8101
I137
sS'tips'
p8102
I219
sS'active'
p8103
I80
sS'gots'
p8104
I73
sS'cough'
p8105
I211
sS'army'
p8106
I84
sS'arms'
p8107
I168
sS'vodka'
p8108
I98
sS'sats'
p8109
I34
sS'answer'
p8110
I562
sS'diddy'
p8111
I39
sS'workout'
p8112
I221
sS'grammar'
p8113
I41
sS'went'
p8114
I2967
sS'spoiler'
p8115
I39
sS'silly'
p8116
I414
sS'spoiled'
p8117
I80
sS'definitely'
p8118
I963
sS'ending'
p8119
I257
sS'17th'
p8120
I61
sS'forced'
p8121
I120
sS'mushroom'
p8122
I29
sS'grown'
p8123
I117
sS'grows'
p8124
I28
sS'thoughts'
p8125
I333
sS'just'
p8126
I29247
sS'-_-'
p8127
I69
sS'happened'
p8128
I738
sS'prepping'
p8129
I25
sS'meow'
p8130
I39
sS'lied'
p8131
I60
sS'lies'
p8132
I79
sS'excel'
p8133
I32
sS'daily'
p8134
I277
sS'overdue'
p8135
I31
sS'shoe'
p8136
I116
sS'french'
p8137
I482
sS'canadian'
p8138
I72
sS'useful'
p8139
I161
sS'france'
p8140
I133
sS'tokyo'
p8141
I53
sS'bites'
p8142
I73
sS'agent'
p8143
I37
sS'oslo'
p8144
I25
sS'nyt'
p8145
I36
sS'nyc'
p8146
I344
sS'staying'
p8147
I453
sS'q'
p8148
I60
sS'switch'
p8149
I153
sS'yorkshire'
p8150
I32
sS'enjoyable'
p8151
I61
sS'especially'
p8152
I626
sS'killers'
p8153
I45
sS'parent'
p8154
I50
sS'sprained'
p8155
I49
sS'stepped'
p8156
I45
sS'mos'
p8157
I25
sS'mow'
p8158
I49
sS'moi'
p8159
I39
sS'moo'
p8160
I31
sS'mon'
p8161
I157
sS'mod'
p8162
I32
sS'overly'
p8163
I25
sS'spreading'
p8164
I58
sS'fellow'
p8165
I244
sS'celebrity'
p8166
I99
sS'5:30'
p8167
I41
sS'good'
p8168
I23405
sS'gooo'
p8169
I89
sS'notes'
p8170
I166
sS'bulls'
p8171
I80
sS'unproductive'
p8172
I25
sS'gotten'
p8173
I259
sS'outta'
p8174
I277
sS'outtt'
p8175
I27
sS'dancing'
p8176
I387
sS'chester'
p8177
I25
sS'donate'
p8178
I41
sS'<-'
p8179
I88
sS'annual'
p8180
I52
sS'jake'
p8181
I62
sS'italy'
p8182
I172
sS'some1'
p8183
I51
sS'ruth'
p8184
I28
sS'eww'
p8185
I84
sS'yesterday'
p8186
I2399
sS'snap'
p8187
I101
sS'iced'
p8188
I82
sS'drama'
p8189
I217
sS'daisies'
p8190
I38
sS"tomorrow's"
p8191
I62
sS'dragging'
p8192
I44
sS'favourite'
p8193
I364
sS'uncomfortable'
p8194
I45
sS'depression'
p8195
I56
sS'sink'
p8196
I46
sS'others'
p8197
I448
sS'sing'
p8198
I399
sS'irritating'
p8199
I35
sS'proof'
p8200
I71
sS'tunnel'
p8201
I33
sS'unpacking'
p8202
I47
sS'tam'
p8203
I25
sS'tan'
p8204
I191
sS'tak'
p8205
I26
sS'stock'
p8206
I135
sS'labor'
p8207
I28
sS'dam'
p8208
I94
sS'dah'
p8209
I27
sS'dat'
p8210
I192
sS'das'
p8211
I37
sS'day'
p8212
I22815
sS'strip'
p8213
I39
sS'harold'
p8214
I29
sS'sadly'
p8215
I474
sS'gear'
p8216
I129
sS'smallville'
p8217
I26
sS'selection'
p8218
I31
sS'text'
p8219
I795
sS'selena'
p8220
I78
sS'otherwise'
p8221
I234
sS'seth'
p8222
I45
sS'sets'
p8223
I58
sS'lake'
p8224
I213
sS'heey'
p8225
I36
sS'brand'
p8226
I191
sS'j'
p8227
I127
sS'annoying'
p8228
I384
sS'yell'
p8229
I40
sS'feeding'
p8230
I83
sS'paris'
p8231
I215
sS'christ'
p8232
I46
sS'asses'
p8233
I36
sS'muse'
p8234
I36
sS'must'
p8235
I2149
sS'hoppusday'
p8236
I77
sS'danny'
p8237
I408
sS'ftsk'
p8238
I37
sS"grey's"
p8239
I71
sS'choir'
p8240
I43
sS'diana'
p8241
I30
sS'evil'
p8242
I238
sS'ths'
p8243
I31
sS'kyle'
p8244
I95
sS'tho'
p8245
I1722
sS'queen'
p8246
I148
sS'pops'
p8247
I80
sS'temptation'
p8248
I26
sS'greenday'
p8249
I35
sS'jelly'
p8250
I84
sS'karen'
p8251
I55
sS'bible'
p8252
I77
sS'afraid'
p8253
I302
sS'cycle'
p8254
I64
sS'charlie'
p8255
I84
sS'uploading'
p8256
I200
sS'casting'
p8257
I29
sS'zomg'
p8258
I31
sS'puzzle'
p8259
I25
sS'dollhouse'
p8260
I114
sS'younger'
p8261
I90
sS'serious'
p8262
I391
sS'says'
p8263
I1377
sS'drinks'
p8264
I252
sS'thousands'
p8265
I43
sS'classroom'
p8266
I25
sS'pays'
p8267
I38
sS'moms'
p8268
I538
sS'devastated'
p8269
I27
sS'hulu'
p8270
I53
sS'fight'
p8271
I408
sS'f1'
p8272
I217
sS'white'
p8273
I544
sS'tanning'
p8274
I86
sS'twitpics'
p8275
I36
sS'boiling'
p8276
I33
sS'closet'
p8277
I74
sS'seafood'
p8278
I29
sS'arrival'
p8279
I28
sS'superstar'
p8280
I25
sS'mails'
p8281
I35
sS'28'
p8282
I78
sS'evidence'
p8283
I35
sS'2)'
p8284
I33
sS'shops'
p8285
I116
sS"(i'm"
p8286
I53
sS'physical'
p8287
I66
sS'fridge'
p8288
I123
sS'slice'
p8289
I59
sS'itching'
p8290
I35
sS'brittany'
p8291
I38
sS'valley'
p8292
I82
sS'maaan'
p8293
I31
sS'bbq'
p8294
I470
sS'cinema'
p8295
I153
sS'championship'
p8296
I56
sS'exhausting'
p8297
I55
sS'print'
p8298
I149
sS'nbc'
p8299
I51
sS'nba'
p8300
I67
sS'anniversary'
p8301
I217
sS'allows'
p8302
I33
sS'chores'
p8303
I94
sS'return'
p8304
I275
sS'convinced'
p8305
I66
sS'stalk'
p8306
I67
sS'seasons'
p8307
I80
sS'fone'
p8308
I51
sS'fond'
p8309
I35
sS'font'
p8310
I38
sS'tourney'
p8311
I25
sS'art'
p8312
I474
sS'dump'
p8313
I28
sS'dumb'
p8314
I225
sS'are'
p8315
I18274
sS'arg'
p8316
I38
sS'arm'
p8317
I193
sS'c'
p8318
I499
sS'sky'
p8319
I302
sS'#3turnoffwords'
p8320
I25
sS'moving'
p8321
I596
sS'temperature'
p8322
I40
sS'kasi'
p8323
I36
sS'prom'
p8324
I494
sS'prob'
p8325
I337
sS'salmon'
p8326
I32
sS'because'
p8327
I3032
sS'girlfriends'
p8328
I67
sS'called'
p8329
I1022
sS'waiting'
p8330
I2129
sS'penis'
p8331
I37
sS'annoy'
p8332
I41
sS'tat'
p8333
I45
sS'tap'
p8334
I44
sS'tax'
p8335
I113
sS'tad'
p8336
I76
sS'tag'
p8337
I118
sS'tab'
p8338
I35
sS'tai'
p8339
I30
sS'panic'
p8340
I100
sS'crawling'
p8341
I35
sS'bye'
p8342
I690
sS'crash'
p8343
I183
sS'category'
p8344
I27
sS'dictionary'
p8345
I29
sS'myspace'
p8346
I599
sS'agency'
p8347
I36
sS'deny'
p8348
I25
sS'photography'
p8349
I132
sS'safely'
p8350
I88
sS'vintage'
p8351
I51
sS"'ll"
p8352
I920
sS'sick'
p8353
I3210
sS'know'
p8354
I11618
sS'getting'
p8355
I5741
sS"i've"
p8356
I4634
sS'gay'
p8357
I349
sS'oprah'
p8358
I104
sS'illinois'
p8359
I29
sS'branch'
p8360
I28
s.